(dp0
S'programs'
p1
(dp2
S'University of Alabama Medical Center Program'
p3
(dp4
S'positions'
p5
I4
sS'rankings'
p6
(lp7
S'appl_1397'
p8
aS'appl_1259'
p9
aS'appl_879'
p10
aS'appl_1084'
p11
aS'appl_461'
p12
aS'appl_597'
p13
aS'appl_403'
p14
aS'appl_1043'
p15
aS'appl_729'
p16
aS'appl_19'
p17
aS'appl_365'
p18
assS'Case Western Reserve University (MetroHealth) Program'
p19
(dp20
g5
I4
sg6
(lp21
S'appl_1221'
p22
aS'appl_1579'
p23
aS'appl_1439'
p24
aS'appl_1028'
p25
aS'appl_1382'
p26
aS'appl_529'
p27
aS'appl_691'
p28
aS'appl_925'
p29
aS'appl_1436'
p30
aS'appl_326'
p31
aS'appl_514'
p32
aS'appl_1577'
p33
aS'appl_1313'
p34
assS'University of Vermont Medical Center Program'
p35
(dp36
g5
I5
sg6
(lp37
S'appl_1275'
p38
aS'appl_686'
p39
aS'appl_1586'
p40
aS'appl_1020'
p41
aS'appl_245'
p42
aS'appl_35'
p43
aS'appl_1433'
p44
aS'appl_1250'
p45
aS'appl_136'
p46
aS'appl_190'
p47
aS'appl_1395'
p48
aS'appl_310'
p49
aS'appl_281'
p50
aS'appl_290'
p51
aS'appl_1521'
p52
aS'appl_425'
p53
assS'Case Western Reserve University/University Hospitals Cleveland Medical Center Program'
p54
(dp55
g5
I6
sg6
(lp56
S'appl_255'
p57
aS'appl_487'
p58
aS'appl_370'
p59
aS'appl_1287'
p60
aS'appl_1409'
p61
aS'appl_900'
p62
aS'appl_933'
p63
aS'appl_56'
p64
aS'appl_232'
p65
aS'appl_274'
p66
aS'appl_894'
p67
aS'appl_545'
p68
aS'appl_1180'
p69
aS'appl_441'
p70
aS'appl_824'
p71
aS'appl_934'
p72
aS'appl_127'
p73
ag18
aS'appl_465'
p74
aS'appl_48'
p75
aS'appl_1445'
p76
aS'appl_1263'
p77
aS'appl_1369'
p78
assS'Summa Health System/NEOMED Program'
p79
(dp80
g5
I8
sg6
(lp81
S'appl_147'
p82
aS'appl_252'
p83
aS'appl_1357'
p84
aS'appl_315'
p85
aS'appl_608'
p86
aS'appl_1387'
p87
aS'appl_386'
p88
aS'appl_18'
p89
ag44
aS'appl_1059'
p90
aS'appl_96'
p91
aS'appl_943'
p92
aS'appl_1215'
p93
aS'appl_445'
p94
aS'appl_1015'
p95
aS'appl_1396'
p96
aS'appl_1469'
p97
aS'appl_1348'
p98
aS'appl_1007'
p99
assS'SUNY Health Science Center at Brooklyn Program'
p100
(dp101
g5
I5
sg6
(lp102
S'appl_380'
p103
aS'appl_485'
p104
aS'appl_1503'
p105
aS'appl_935'
p106
ag97
aS'appl_681'
p107
aS'appl_1045'
p108
aS'appl_909'
p109
aS'appl_1374'
p110
aS'appl_1389'
p111
aS'appl_580'
p112
aS'appl_223'
p113
aS'appl_454'
p114
aS'appl_1325'
p115
aS'appl_1270'
p116
aS'appl_153'
p117
aS'appl_1041'
p118
assS'Indiana University School of Medicine Program'
p119
(dp120
g5
I6
sg6
(lp121
S'appl_1421'
p122
aS'appl_842'
p123
aS'appl_657'
p124
aS'appl_1136'
p125
aS'appl_130'
p126
aS'appl_75'
p127
aS'appl_1051'
p128
aS'appl_1134'
p129
aS'appl_633'
p130
aS'appl_611'
p131
aS'appl_1224'
p132
aS'appl_416'
p133
ag40
aS'appl_1102'
p134
aS'appl_794'
p135
assS'UPMC Medical Education Program'
p136
(dp137
g5
I4
sg6
(lp138
S'appl_424'
p139
aS'appl_619'
p140
ag51
aS'appl_976'
p141
aS'appl_450'
p142
aS'appl_1078'
p143
aS'appl_90'
p144
aS'appl_388'
p145
aS'appl_904'
p146
aS'appl_1589'
p147
aS'appl_1006'
p148
aS'appl_1014'
p149
aS'appl_1517'
p150
aS'appl_639'
p151
aS'appl_620'
p152
aS'appl_953'
p153
assS'Pennsylvania Hospital of the University of Pennsylvania Health System Program'
p154
(dp155
g5
I6
sg6
(lp156
S'appl_1294'
p157
ag29
aS'appl_978'
p158
ag126
aS'appl_508'
p159
aS'appl_499'
p160
aS'appl_411'
p161
aS'appl_1068'
p162
ag40
aS'appl_690'
p163
aS'appl_714'
p164
aS'appl_76'
p165
aS'appl_409'
p166
aS'appl_1393'
p167
aS'appl_1317'
p168
aS'appl_1188'
p169
aS'appl_72'
p170
aS'appl_1361'
p171
assS'William Beaumont Hospital Program'
p172
(dp173
g5
I3
sg6
(lp174
S'appl_1435'
p175
aS'appl_1033'
p176
aS'appl_617'
p177
aS'appl_1238'
p178
aS'appl_712'
p179
aS'appl_1300'
p180
aS'appl_1127'
p181
aS'appl_350'
p182
aS'appl_1176'
p183
ag49
aS'appl_791'
p184
aS'appl_209'
p185
aS'appl_1112'
p186
assS'Oregon Health & Science University Program'
p187
(dp188
g5
I3
sg6
(lp189
S'appl_1496'
p190
aS'appl_194'
p191
aS'appl_1473'
p192
aS'appl_658'
p193
aS'appl_889'
p194
aS'appl_548'
p195
aS'appl_955'
p196
aS'appl_37'
p197
aS'appl_1575'
p198
aS'appl_210'
p199
aS'appl_1425'
p200
aS'appl_614'
p201
ag52
aS'appl_1072'
p202
aS'appl_356'
p203
aS'appl_1438'
p204
aS'appl_240'
p205
aS'appl_1354'
p206
aS'appl_995'
p207
aS'appl_893'
p208
aS'appl_266'
p209
ag153
assS'Cedars-Sinai Medical Center Program'
p210
(dp211
g5
I5
sg6
(lp212
S'appl_666'
p213
aS'appl_692'
p214
aS'appl_954'
p215
aS'appl_151'
p216
aS'appl_469'
p217
aS'appl_656'
p218
aS'appl_181'
p219
aS'appl_1162'
p220
aS'appl_747'
p221
aS'appl_584'
p222
aS'appl_1362'
p223
aS'appl_761'
p224
aS'appl_1426'
p225
ag64
aS'appl_1398'
p226
aS'appl_994'
p227
aS'appl_679'
p228
aS'appl_289'
p229
assS'Medical College of Georgia Program'
p230
(dp231
g5
I2
sg6
(lp232
g108
aS'appl_538'
p233
aS'appl_1407'
p234
aS'appl_713'
p235
aS'appl_1351'
p236
ag205
aS'appl_555'
p237
aS'appl_605'
p238
aS'appl_463'
p239
aS'appl_1181'
p240
aS'appl_1571'
p241
aS'appl_1249'
p242
aS'appl_363'
p243
aS'appl_1199'
p244
aS'appl_552'
p245
aS'appl_1595'
p246
aS'appl_4'
p247
aS'appl_107'
p248
ag125
assS'Jackson Memorial Hospital/Jackson Health System Program'
p249
(dp250
g5
I6
sg6
(lp251
S'appl_1213'
p252
aS'appl_1237'
p253
aS'appl_3'
p254
aS'appl_741'
p255
ag133
aS'appl_1502'
p256
ag181
aS'appl_1559'
p257
aS'appl_779'
p258
ag235
aS'appl_88'
p259
ag52
ag34
aS'appl_184'
p260
aS'appl_300'
p261
aS'appl_131'
p262
assS"St Joseph's Hospital and Medical Center Program"
p263
(dp264
g5
I6
sg6
(lp265
g164
aS'appl_1039'
p266
aS'appl_479'
p267
aS'appl_939'
p268
aS'appl_173'
p269
aS'appl_564'
p270
aS'appl_291'
p271
aS'appl_383'
p272
ag23
aS'appl_1048'
p273
ag149
ag32
aS'appl_1198'
p274
aS'appl_1350'
p275
aS'appl_349'
p276
ag45
aS'appl_1034'
p277
aS'appl_333'
p278
aS'appl_642'
p279
assS'Yale-New Haven Medical Center Program'
p280
(dp281
g5
I7
sg6
(lp282
S'appl_1185'
p283
aS'appl_407'
p284
aS'appl_1414'
p285
aS'appl_432'
p286
aS'appl_55'
p287
aS'appl_1290'
p288
aS'appl_1087'
p289
aS'appl_94'
p290
aS'appl_1380'
p291
aS'appl_766'
p292
aS'appl_7'
p293
aS'appl_143'
p294
aS'appl_1231'
p295
ag268
assS'University of Michigan Program'
p296
(dp297
g5
I6
sg6
(lp298
S'appl_1404'
p299
aS'appl_752'
p300
aS'appl_609'
p301
aS'appl_1264'
p302
aS'appl_645'
p303
aS'appl_710'
p304
aS'appl_1544'
p305
aS'appl_1476'
p306
aS'appl_1528'
p307
aS'appl_1408'
p308
aS'appl_494'
p309
aS'appl_901'
p310
aS'appl_69'
p311
aS'appl_1298'
p312
aS'appl_66'
p313
aS'appl_1454'
p314
aS'appl_1411'
p315
assS'University of Cincinnati Medical Center/College of Medicine Program'
p316
(dp317
g5
I8
sg6
(lp318
S'appl_1295'
p319
aS'appl_918'
p320
aS'appl_39'
p321
aS'appl_501'
p322
aS'appl_1534'
p323
aS'appl_429'
p324
aS'appl_740'
p325
aS'appl_1131'
p326
ag34
aS'appl_1423'
p327
ag163
aS'appl_1031'
p328
ag200
aS'appl_246'
p329
aS'appl_1225'
p330
ag132
aS'appl_329'
p331
assS'University of Virginia Program'
p332
(dp333
g5
I3
sg6
(lp334
S'appl_1321'
p335
ag219
aS'appl_1073'
p336
ag207
ag233
aS'appl_800'
p337
aS'appl_856'
p338
aS'appl_235'
p339
ag111
aS'appl_1244'
p340
ag190
ag285
aS'appl_522'
p341
aS'appl_916'
p342
aS'appl_1578'
p343
aS'appl_216'
p344
aS'appl_319'
p345
aS'appl_1032'
p346
assS'Danbury Hospital Program'
p347
(dp348
g5
I7
sg6
(lp349
S'appl_70'
p350
aS'appl_1024'
p351
aS'appl_952'
p352
aS'appl_653'
p353
aS'appl_1282'
p354
aS'appl_1288'
p355
ag217
aS'appl_1319'
p356
aS'appl_379'
p357
aS'appl_503'
p358
aS'appl_1285'
p359
aS'appl_1472'
p360
aS'appl_1219'
p361
aS'appl_993'
p362
aS'appl_1147'
p363
aS'appl_1157'
p364
aS'appl_308'
p365
ag186
assS'Albany Medical Center Program'
p366
(dp367
g5
I6
sg6
(lp368
g140
aS'appl_1465'
p369
aS'appl_342'
p370
aS'appl_129'
p371
aS'appl_301'
p372
aS'appl_867'
p373
aS'appl_1315'
p374
aS'appl_168'
p375
ag141
aS'appl_456'
p376
ag307
ag305
aS'appl_338'
p377
ag261
ag181
assS'George Washington University Program'
p378
(dp379
g5
I7
sg6
(lp380
S'appl_603'
p381
aS'appl_381'
p382
aS'appl_213'
p383
aS'appl_1274'
p384
aS'appl_359'
p385
aS'appl_1494'
p386
aS'appl_1561'
p387
aS'appl_457'
p388
aS'appl_1437'
p389
aS'appl_576'
p390
aS'appl_723'
p391
aS'appl_389'
p392
aS'appl_1203'
p393
aS'appl_320'
p394
ag104
aS'appl_435'
p395
assS'Johns Hopkins University Program'
p396
(dp397
g5
I3
sg6
(lp398
S'appl_34'
p399
aS'appl_1539'
p400
aS'appl_132'
p401
aS'appl_373'
p402
ag253
aS'appl_59'
p403
ag151
aS'appl_1154'
p404
aS'appl_908'
p405
ag357
aS'appl_102'
p406
aS'appl_262'
p407
aS'appl_624'
p408
aS'appl_1212'
p409
ag181
aS'appl_1499'
p410
aS'appl_1373'
p411
ag275
aS'appl_436'
p412
ag67
assS'University of South Florida Morsani Program'
p413
(dp414
g5
I5
sg6
(lp415
g291
aS'appl_1394'
p416
ag383
aS'appl_1564'
p417
aS'appl_518'
p418
aS'appl_1372'
p419
aS'appl_1335'
p420
aS'appl_852'
p421
aS'appl_618'
p422
aS'appl_110'
p423
aS'appl_671'
p424
aS'appl_215'
p425
aS'appl_1083'
p426
ag17
assS'Brown University Program'
p427
(dp428
g5
I2
sg6
(lp429
S'appl_444'
p430
ag403
ag245
aS'appl_591'
p431
aS'appl_1086'
p432
aS'appl_415'
p433
aS'appl_1450'
p434
aS'appl_1353'
p435
aS'appl_1405'
p436
aS'appl_293'
p437
aS'appl_220'
p438
aS'appl_1116'
p439
aS'appl_261'
p440
aS'appl_562'
p441
aS'appl_1525'
p442
aS'appl_1066'
p443
aS'appl_983'
p444
aS'appl_1329'
p445
assS'Boston University Medical Center Program'
p446
(dp447
g5
I3
sg6
(lp448
S'appl_1399'
p449
aVjg
p450
aS'appl_510'
p451
ag239
ag83
ag141
aS'appl_182'
p452
aS'appl_172'
p453
aS'appl_1370'
p454
aS'appl_179'
p455
ag408
aS'appl_606'
p456
aS'appl_621'
p457
aS'appl_1000'
p458
ag228
aS'appl_855'
p459
aS'appl_120'
p460
aS'appl_734'
p461
ag256
ag65
aS'appl_551'
p462
assS'Washington University/B-JH/SLCH Consortium Program'
p463
(dp464
g5
I5
sg6
(lp465
S'appl_1163'
p466
aS'appl_180'
p467
ag52
aS'appl_1337'
p468
aS'appl_1412'
p469
ag96
aS'appl_1489'
p470
aS'appl_1139'
p471
aS'appl_677'
p472
aS'appl_1050'
p473
aS'appl_1248'
p474
aS'appl_16'
p475
aS'appl_1150'
p476
aS'appl_1392'
p477
aS'appl_1377'
p478
aS'appl_1306'
p479
ag150
assS'Creighton University Program'
p480
(dp481
g5
I3
sg6
(lp482
S'appl_1135'
p483
ag435
aS'appl_1186'
p484
aS'appl_647'
p485
aS'appl_844'
p486
aS'appl_399'
p487
aS'appl_1164'
p488
aS'appl_509'
p489
aS'appl_502'
p490
aS'appl_973'
p491
aS'appl_1468'
p492
aS'appl_133'
p493
aS'appl_862'
p494
aS'appl_1011'
p495
aS'appl_170'
p496
aS'appl_1038'
p497
aS'appl_278'
p498
aS'appl_1098'
p499
ag197
assS'Allegheny Health Network Medical Education Consortium (AGH) Program'
p500
(dp501
g5
I3
sg6
(lp502
S'appl_1065'
p503
ag254
aS'appl_963'
p504
ag390
aS'appl_259'
p505
aS'appl_82'
p506
aS'appl_1500'
p507
aS'appl_878'
p508
aS'appl_1'
p509
ag416
aS'appl_161'
p510
ag185
aS'appl_804'
p511
aS'appl_1156'
p512
aS'appl_1486'
p513
aS'appl_884'
p514
aS'appl_1114'
p515
aS'appl_968'
p516
ag472
assS'Drexel University College of Medicine/Hahnemann University Hospital Program'
p517
(dp518
g5
I6
sg6
(lp519
g112
aS'appl_1202'
p520
aS'appl_321'
p521
aS'appl_746'
p522
ag274
aS'appl_1542'
p523
ag308
ag242
ag15
aS'appl_84'
p524
ag118
aS'appl_402'
p525
aS'appl_676'
p526
aS'appl_1495'
p527
aS'appl_696'
p528
aS'appl_116'
p529
ag496
ag39
assS'Rutgers Robert Wood Johnson Medical School Program'
p530
(dp531
g5
I6
sg6
(lp532
g88
aS'appl_1588'
p533
aS'appl_462'
p534
aS'appl_1424'
p535
ag510
ag256
aS'appl_165'
p536
aS'appl_1005'
p537
aS'appl_623'
p538
aS'appl_1493'
p539
ag73
ag53
aS'appl_224'
p540
aS'appl_662'
p541
assS'University of Florida Program'
p542
(dp543
g5
I6
sg6
(lp544
S'appl_23'
p545
aS'appl_1567'
p546
aS'appl_15'
p547
ag240
ag404
ag235
ag412
ag344
ag182
aS'appl_1478'
p548
ag487
aS'appl_929'
p549
aS'appl_863'
p550
aS'appl_273'
p551
ag247
aS'appl_1138'
p552
aS'appl_285'
p553
ag278
aS'appl_1458'
p554
aS'appl_126'
p555
assS'Baylor University Medical Center Program'
p556
(dp557
g5
I6
sg6
(lp558
S'appl_905'
p559
aS'appl_378'
p560
aS'appl_1115'
p561
aS'appl_377'
p562
aS'appl_627'
p563
ag467
aS'appl_103'
p564
aS'appl_1516'
p565
aS'appl_1413'
p566
aS'appl_1323'
p567
aS'appl_1572'
p568
aS'appl_343'
p569
ag15
aS'appl_1260'
p570
aS'appl_1573'
p571
ag179
assS'UMMS-Baystate Program'
p572
(dp573
g5
I6
sg6
(lp574
S'appl_946'
p575
ag535
aS'appl_866'
p576
aS'appl_123'
p577
aS'appl_1390'
p578
ag92
ag247
ag130
aS'appl_1535'
p579
ag370
aS'appl_1201'
p580
aS'appl_1336'
p581
ag330
ag145
assS'Hofstra Northwell School of Medicine at Lenox Hill Hospital Program'
p582
(dp583
g5
I5
sg6
(lp584
S'appl_915'
p585
aS'appl_1547'
p586
aS'appl_1540'
p587
aS'appl_920'
p588
ag418
ag77
aS'appl_459'
p589
ag516
aS'appl_550'
p590
aS'appl_1293'
p591
aS'appl_1026'
p592
aS'appl_1596'
p593
aS'appl_875'
p594
ag91
assS'Cleveland Clinic Foundation Program'
p595
(dp596
g5
I5
sg6
(lp597
S'appl_1568'
p598
aS'appl_1245'
p599
ag479
aS'appl_149'
p600
ag46
aS'appl_1002'
p601
aS'appl_684'
p602
aS'appl_720'
p603
aS'appl_1553'
p604
ag17
aS'appl_1096'
p605
aS'appl_1056'
p606
aS'appl_572'
p607
assS'University of Texas Medical Branch Hospitals Program'
p608
(dp609
g5
I6
sg6
(lp610
g301
aS'appl_927'
p611
aS'appl_357'
p612
aS'appl_728'
p613
aS'appl_537'
p614
aS'appl_1590'
p615
aS'appl_29'
p616
aS'appl_1177'
p617
aS'appl_265'
p618
aS'appl_1077'
p619
ag34
aS'appl_1355'
p620
aS'appl_1598'
p621
assS'Hartford Hospital Program'
p622
(dp623
g5
I2
sg6
(lp624
g343
aS'appl_1182'
p625
aS'appl_371'
p626
aS'appl_586'
p627
ag400
aS'appl_1455'
p628
aS'appl_418'
p629
ag422
aS'appl_1345'
p630
ag453
ag84
aS'appl_247'
p631
aS'appl_1058'
p632
ag524
aS'appl_405'
p633
ag392
ag461
aS'appl_471'
p634
aS'appl_1384'
p635
assS'Los Angeles County-Harbor-UCLA Medical Center Program'
p636
(dp637
g5
I6
sg6
(lp638
g562
aS'appl_1174'
p639
aS'appl_1283'
p640
ag108
aS'appl_793'
p641
aS'appl_327'
p642
aS'appl_843'
p643
aS'appl_1574'
p644
aS'appl_858'
p645
aS'appl_1082'
p646
aS'appl_1320'
p647
aS'appl_344'
p648
aS'appl_387'
p649
ag99
aS'appl_959'
p650
ag494
assS'Georgetown University Hospital Program'
p651
(dp652
g5
I6
sg6
(lp653
S'appl_45'
p654
aS'appl_67'
p655
aS'appl_754'
p656
aS'appl_42'
p657
ag592
ag570
ag630
aS'appl_339'
p658
aS'appl_97'
p659
aS'appl_1055'
p660
ag617
aS'appl_400'
p661
ag247
aS'appl_540'
p662
aS'appl_965'
p663
ag127
assS'University of Nebraska Medical Center College of Medicine Program'
p664
(dp665
g5
I5
sg6
(lp666
g389
aS'appl_279'
p667
aS'appl_1515'
p668
aS'appl_1366'
p669
aS'appl_484'
p670
aS'appl_557'
p671
aS'appl_1543'
p672
ag364
aS'appl_449'
p673
aS'appl_1550'
p674
aS'appl_868'
p675
ag147
aS'appl_975'
p676
aS'appl_1049'
p677
ag560
assS'Massachusetts General Hospital Program'
p678
(dp679
g5
I8
sg6
(lp680
g135
ag621
aS'appl_219'
p681
aS'appl_787'
p682
aS'appl_632'
p683
ag355
aS'appl_1129'
p684
aS'appl_328'
p685
aS'appl_1210'
p686
ag640
aS'appl_305'
p687
aS'appl_135'
p688
ag287
aS'appl_477'
p689
aS'appl_1592'
p690
aS'appl_1358'
p691
assS'Emory University Program'
p692
(dp693
g5
I2
sg6
(lp694
S'appl_593'
p695
ag618
ag228
aS'appl_1328'
p696
ag147
ag74
aS'appl_631'
p697
aS'appl_505'
p698
ag576
aS'appl_1531'
p699
aS'appl_949'
p700
aS'appl_1340'
p701
aS'appl_1333'
p702
ag539
ag527
ag286
assS'University of South Dakota Program'
p703
(dp704
g5
I7
sg6
(lp705
S'appl_807'
p706
aS'appl_142'
p707
ag384
aS'appl_519'
p708
aS'appl_1205'
p709
aS'appl_489'
p710
aS'appl_1258'
p711
aS'appl_256'
p712
ag409
aS'appl_282'
p713
ag432
ag402
aS'appl_1379'
p714
aS'appl_1239'
p715
aS'appl_1318'
p716
aS'appl_931'
p717
assS'University of Mississippi Medical Center Program'
p718
(dp719
g5
I7
sg6
(lp720
S'appl_140'
p721
ag687
aS'appl_730'
p722
aS'appl_1052'
p723
ag122
ag220
aS'appl_177'
p724
ag563
aS'appl_1363'
p725
aS'appl_840'
p726
aS'appl_491'
p727
aS'appl_207'
p728
aS'appl_819'
p729
aS'appl_101'
p730
aS'appl_860'
p731
aS'appl_820'
p732
aS'appl_782'
p733
aS'appl_1088'
p734
ag168
assS'Icahn School of Medicine at Mount Sinai Program'
p735
(dp736
g5
I4
sg6
(lp737
S'appl_1597'
p738
ag23
aS'appl_1428'
p739
aS'appl_439'
p740
aS'appl_543'
p741
aS'appl_1001'
p742
aS'appl_446'
p743
aS'appl_802'
p744
ag593
aS'appl_467'
p745
ag662
ag53
aS'appl_1444'
p746
ag266
ag288
aS'appl_1416'
p747
aS'appl_560'
p748
assS'University of Toledo Program'
p749
(dp750
g5
I3
sg6
(lp751
S'appl_1140'
p752
ag399
ag634
ag365
aS'appl_699'
p753
aS'appl_144'
p754
aS'appl_203'
p755
aS'appl_1271'
p756
aS'appl_899'
p757
aS'appl_1456'
p758
aS'appl_664'
p759
aS'appl_919'
p760
aS'appl_1209'
p761
ag252
aS'appl_716'
p762
aS'appl_727'
p763
aS'appl_106'
p764
ag540
aS'appl_1420'
p765
ag730
assS'University of New Mexico Program'
p766
(dp767
g5
I2
sg6
(lp768
S'appl_229'
p769
aS'appl_1359'
p770
aS'appl_8'
p771
aS'appl_575'
p772
aS'appl_452'
p773
aS'appl_81'
p774
aS'appl_1305'
p775
ag685
aS'appl_1090'
p776
ag315
aS'appl_743'
p777
ag540
ag621
aS'appl_796'
p778
aS'appl_22'
p779
aS'appl_1217'
p780
ag496
assS'University of Kentucky College of Medicine Program'
p781
(dp782
g5
I2
sg6
(lp783
S'appl_674'
p784
aS'appl_673'
p785
ag699
aS'appl_1119'
p786
aS'appl_574'
p787
ag257
aS'appl_697'
p788
aS'appl_1442'
p789
aS'appl_568'
p790
ag74
ag435
aS'appl_822'
p791
ag47
ag515
ag229
ag370
assS'University of Texas Health Science Center School of Medicine at San Antonio Program'
p792
(dp793
g5
I2
sg6
(lp794
S'appl_1462'
p795
ag190
aS'appl_1168'
p796
aS'appl_141'
p797
ag193
aS'appl_268'
p798
aS'appl_1151'
p799
aS'appl_683'
p800
ag235
ag331
ag238
aS'appl_473'
p801
ag148
aS'appl_295'
p802
ag328
ag116
ag629
assS'St John Hospital and Medical Center Program'
p803
(dp804
g5
I2
sg6
(lp805
g710
aS'appl_192'
p806
ag417
aS'appl_1208'
p807
aS'appl_579'
p808
aS'appl_1491'
p809
aS'appl_516'
p810
ag139
aS'appl_1261'
p811
aS'appl_36'
p812
aS'appl_668'
p813
ag51
aS'appl_1172'
p814
aS'appl_186'
p815
aS'appl_719'
p816
ag78
ag592
assS'Medical College of Wisconsin Affiliated Hospitals Program'
p817
(dp818
g5
I5
sg6
(lp819
S'appl_244'
p820
aS'appl_971'
p821
ag236
aS'appl_171'
p822
aS'appl_1508'
p823
aS'appl_1344'
p824
aS'appl_270'
p825
aS'appl_1429'
p826
aS'appl_152'
p827
aS'appl_960'
p828
aS'appl_770'
p829
aS'appl_536'
p830
aS'appl_865'
p831
aS'appl_254'
p832
aS'appl_1062'
p833
ag163
ag109
ag758
ag220
assS'University of Minnesota Program'
p834
(dp835
g5
I3
sg6
(lp836
S'appl_956'
p837
aS'appl_1307'
p838
aS'appl_1581'
p839
aS'appl_974'
p840
aS'appl_470'
p841
aS'appl_1158'
p842
aS'appl_384'
p843
ag547
aS'appl_665'
p844
aS'appl_517'
p845
ag815
aS'appl_40'
p846
ag89
aS'appl_749'
p847
ag73
aS'appl_795'
p848
assS'University of Oklahoma Health Sciences Center Program'
p849
(dp850
g5
I6
sg6
(lp851
S'appl_1591'
p852
ag58
aS'appl_1537'
p853
ag467
aS'appl_228'
p854
aS'appl_680'
p855
ag374
ag157
ag702
aS'appl_134'
p856
aS'appl_573'
p857
ag176
ag27
aS'appl_675'
p858
aS'appl_408'
p859
ag15
assS'University of California (San Diego) Program'
p860
(dp861
g5
I7
sg6
(lp862
S'appl_1025'
p863
aS'appl_853'
p864
ag605
aS'appl_1171'
p865
aS'appl_530'
p866
ag14
aS'appl_515'
p867
ag233
ag286
aS'appl_1243'
p868
ag440
ag67
aS'appl_950'
p869
aS'appl_307'
p870
aS'appl_932'
p871
assS'New York University School of Medicine Program'
p872
(dp873
g5
I8
sg6
(lp874
g854
aS'appl_1097'
p875
ag387
ag402
aS'appl_850'
p876
aS'appl_422'
p877
aS'appl_154'
p878
aS'appl_811'
p879
aS'appl_1010'
p880
aS'appl_902'
p881
aS'appl_1035'
p882
aS'appl_236'
p883
ag129
ag216
assS'Rutgers New Jersey Medical School Program'
p884
(dp885
g5
I8
sg6
(lp886
S'appl_0'
p887
aS'appl_298'
p888
aS'appl_1308'
p889
ag357
ag48
ag311
ag695
aS'appl_880'
p890
aS'appl_999'
p891
ag288
ag237
ag390
aS'appl_769'
p892
aS'appl_1566'
p893
assS'University of Tennessee Program'
p894
(dp895
g5
I6
sg6
(lp896
S'appl_561'
p897
aS'appl_1418'
p898
aS'appl_1281'
p899
aS'appl_898'
p900
aS'appl_1268'
p901
ag809
ag577
aS'appl_183'
p902
aS'appl_12'
p903
aS'appl_1124'
p904
ag87
aS'appl_604'
p905
aS'appl_121'
p906
aS'appl_1558'
p907
ag345
ag747
assS'University of Maryland Program'
p908
(dp909
g5
I3
sg6
(lp910
g356
ag417
ag727
aS'appl_687'
p911
aS'appl_79'
p912
ag241
ag499
aS'appl_1165'
p913
aS'appl_745'
p914
aS'appl_5'
p915
ag856
aS'appl_1146'
p916
ag239
aS'appl_1092'
p917
ag571
ag904
ag672
aS'appl_27'
p918
assS'St Barnabas Medical Center Program'
p919
(dp920
g5
I2
sg6
(lp921
g605
aS'appl_1512'
p922
aS'appl_1459'
p923
ag892
ag699
aS'appl_874'
p924
aS'appl_913'
p925
ag389
aS'appl_837'
p926
aS'appl_1501'
p927
ag561
aS'appl_234'
p928
ag43
aS'appl_6'
p929
assS'Dartmouth-Hitchcock Medical Center Program'
p930
(dp931
g5
I8
sg6
(lp932
g820
aS'appl_816'
p933
ag362
ag681
aS'appl_360'
p934
aS'appl_1111'
p935
ag473
aS'appl_195'
p936
aS'appl_803'
p937
aS'appl_1331'
p938
aS'appl_460'
p939
ag698
ag453
aS'appl_583'
p940
ag24
ag756
assS'St Louis University School of Medicine Program'
p941
(dp942
g5
I2
sg6
(lp943
S'appl_1061'
p944
aS'appl_556'
p945
aS'appl_821'
p946
ag847
ag364
aS'appl_930'
p947
aS'appl_385'
p948
aS'appl_1254'
p949
ag277
ag99
aS'appl_157'
p950
aS'appl_709'
p951
aS'appl_1297'
p952
ag831
aS'appl_453'
p953
aS'appl_845'
p954
aS'appl_306'
p955
ag82
ag907
ag103
ag912
aS'appl_810'
p956
assS'Mayo Clinic College of Medicine and Science (Rochester) Program'
p957
(dp958
g5
I2
sg6
(lp959
S'appl_1085'
p960
aS'appl_367'
p961
ag863
aS'appl_1169'
p962
ag453
ag31
aS'appl_1330'
p963
aS'appl_1121'
p964
aS'appl_1093'
p965
aS'appl_854'
p966
ag247
ag391
aS'appl_44'
p967
ag547
ag94
aS'appl_1234'
p968
assS'Vanderbilt University Medical Center Program'
p969
(dp970
g5
I8
sg6
(lp971
g944
aS'appl_1511'
p972
ag571
aS'appl_1492'
p973
ag869
ag570
aS'appl_1044'
p974
ag51
aS'appl_475'
p975
ag338
ag617
ag953
aS'appl_936'
p976
ag112
aS'appl_598'
p977
ag410
ag365
assS'Virginia Commonwealth University Health System Program'
p978
(dp979
g5
I8
sg6
(lp980
S'appl_602'
p981
ag697
ag948
aS'appl_581'
p982
aS'appl_524'
p983
ag715
ag864
aS'appl_175'
p984
ag9
ag243
ag50
ag716
aS'appl_299'
p985
ag811
aS'appl_1552'
p986
assS'Duke University Hospital Program'
p987
(dp988
g5
I2
sg6
(lp989
g422
aS'appl_923'
p990
ag219
aS'appl_1069'
p991
ag546
ag25
ag29
aS'appl_733'
p992
ag852
aS'appl_122'
p993
ag270
ag261
aS'appl_478'
p994
ag286
aS'appl_1167'
p995
aS'appl_166'
p996
ag566
ag810
aS'appl_1523'
p997
ag937
ag510
ag78
ag893
assS"Brigham and Women's Hospital Program"
p998
(dp999
g5
I8
sg6
(lp1000
S'appl_191'
p1001
ag810
aS'appl_1081'
p1002
aS'appl_374'
p1003
aS'appl_823'
p1004
ag469
ag672
aS'appl_571'
p1005
aS'appl_1091'
p1006
ag354
aS'appl_92'
p1007
aS'appl_570'
p1008
ag167
aS'appl_977'
p1009
aS'appl_526'
p1010
ag787
assS'University of Arkansas for Medical Sciences Program'
p1011
(dp1012
g5
I2
sg6
(lp1013
g551
aS'appl_565'
p1014
aS'appl_991'
p1015
ag458
aS'appl_442'
p1016
ag340
aS'appl_1057'
p1017
aS'appl_33'
p1018
aS'appl_1218'
p1019
aS'appl_1530'
p1020
aS'appl_1277'
p1021
aS'appl_857'
p1022
assS'University of Southern California/LAC+USC Medical Center Program'
p1023
(dp1024
g5
I6
sg6
(lp1025
g977
aS'appl_799'
p1026
ag166
aS'appl_113'
p1027
ag603
ag514
ag38
ag59
aS'appl_1342'
p1028
aS'appl_832'
p1029
aS'appl_1153'
p1030
aS'appl_474'
p1031
aS'appl_506'
p1032
ag673
aS'appl_330'
p1033
ag440
ag745
assS'Beth Israel Deaconess Medical Center/Harvard Medical School Program'
p1034
(dp1035
g5
I4
sg6
(lp1036
g96
ag887
aS'appl_217'
p1037
aS'appl_440'
p1038
aS'appl_1419'
p1039
ag345
aS'appl_1479'
p1040
ag255
aS'appl_406'
p1041
aS'appl_1463'
p1042
aS'appl_705'
p1043
aS'appl_258'
p1044
aS'appl_361'
p1045
ag258
assS'University of Iowa Hospitals and Clinics Program'
p1046
(dp1047
g5
I6
sg6
(lp1048
g1027
aS'appl_275'
p1049
aS'appl_198'
p1050
ag151
ag774
aS'appl_615'
p1051
ag209
aS'appl_250'
p1052
ag833
aS'appl_1099'
p1053
ag707
aS'appl_1322'
p1054
ag776
ag329
aS'appl_1229'
p1055
aS'appl_1430'
p1056
ag914
aS'appl_972'
p1057
ag268
aS'appl_1008'
p1058
ag258
ag489
ag713
assS'University of Washington Program'
p1059
(dp1060
g5
I3
sg6
(lp1061
S'appl_78'
p1062
ag754
ag686
ag842
aS'appl_872'
p1063
ag364
ag566
ag113
ag387
aS'appl_670'
p1064
aS'appl_1232'
p1065
ag1017
ag1058
aS'appl_789'
p1066
aS'appl_1299'
p1067
ag73
aS'appl_1292'
p1068
assS'Baylor College of Medicine Program'
p1069
(dp1070
g5
I5
sg6
(lp1071
g336
ag802
aS'appl_1338'
p1072
ag110
aS'appl_531'
p1073
ag600
aS'appl_553'
p1074
ag244
aS'appl_910'
p1075
ag69
aS'appl_128'
p1076
aS'appl_260'
p1077
ag419
aS'appl_702'
p1078
ag545
ag243
aS'appl_1347'
p1079
ag262
aS'appl_790'
p1080
assS'Tufts Medical Center Program'
p1081
(dp1082
g5
I8
sg6
(lp1083
g553
ag99
ag222
aS'appl_922'
p1084
aS'appl_1227'
p1085
ag445
aS'appl_201'
p1086
aS'appl_1269'
p1087
aS'appl_345'
p1088
aS'appl_1286'
p1089
aS'appl_882'
p1090
ag515
ag289
ag892
ag140
aS'appl_358'
p1091
aS'appl_715'
p1092
assS'Temple University Hospital Program'
p1093
(dp1094
g5
I5
sg6
(lp1095
g1028
aS'appl_808'
p1096
ag203
aS'appl_847'
p1097
ag915
ag309
aS'appl_989'
p1098
ag145
ag259
aS'appl_648'
p1099
ag419
aS'appl_208'
p1100
ag1014
aS'appl_595'
p1101
aS'appl_38'
p1102
ag302
assS'Detroit Medical Center/Wayne State University Program'
p1103
(dp1104
g5
I5
sg6
(lp1105
S'appl_58'
p1106
ag244
ag91
ag87
aS'appl_917'
p1107
aS'appl_758'
p1108
aS'appl_1352'
p1109
aS'appl_242'
p1110
aS'appl_748'
p1111
ag763
aS'appl_1226'
p1112
ag285
ag141
aS'appl_1141'
p1113
aS'appl_1585'
p1114
ag410
ag1098
ag619
aS'appl_1554'
p1115
assS'Hofstra Northwell School of Medicine at Staten Island University Hospital Program'
p1116
(dp1117
g5
I2
sg6
(lp1118
S'appl_368'
p1119
ag656
aS'appl_644'
p1120
aS'appl_417'
p1121
aS'appl_346'
p1122
ag423
aS'appl_1484'
p1123
ag337
ag142
aS'appl_689'
p1124
ag938
aS'appl_1192'
p1125
ag673
aS'appl_105'
p1126
ag1092
aS'appl_109'
p1127
aS'appl_91'
p1128
aS'appl_158'
p1129
ag675
ag603
assS'Nassau University Medical Center Program'
p1130
(dp1131
g5
I4
sg6
(lp1132
g645
ag1112
aS'appl_1487'
p1133
ag627
ag336
aS'appl_736'
p1134
ag323
aS'appl_77'
p1135
aS'appl_1075'
p1136
ag865
ag206
ag1124
aS'appl_162'
p1137
aS'appl_1461'
p1138
assS'University of Utah Program'
p1139
(dp1140
g5
I5
sg6
(lp1141
g185
ag355
ag418
ag326
aS'appl_1422'
p1142
ag509
ag715
ag485
aS'appl_366'
p1143
ag712
aS'appl_1273'
p1144
aS'appl_1053'
p1145
ag598
ag852
aS'appl_938'
p1146
ag658
ag578
assS'West Virginia University Program'
p1147
(dp1148
g5
I2
sg6
(lp1149
g536
ag789
ag702
aS'appl_1159'
p1150
aS'appl_520'
p1151
aS'appl_612'
p1152
ag918
ag359
ag126
aS'appl_504'
p1153
aS'appl_512'
p1154
ag361
aS'appl_805'
p1155
ag827
ag619
ag111
aS'appl_759'
p1156
ag460
ag454
ag616
ag906
assS'Medical University of South Carolina Program'
p1157
(dp1158
g5
I6
sg6
(lp1159
S'appl_755'
p1160
aS'appl_1488'
p1161
ag219
ag900
ag875
ag1087
ag16
aS'appl_1302'
p1162
ag1128
ag1146
ag911
ag357
ag52
aS'appl_257'
p1163
ag123
aS'appl_1533'
p1164
aS'appl_63'
p1165
assS'Henry Ford Hospital/Wayne State University Program'
p1166
(dp1167
g5
I7
sg6
(lp1168
g234
aS'appl_693'
p1169
aS'appl_762'
p1170
aS'appl_99'
p1171
aS'appl_390'
p1172
aS'appl_1160'
p1173
ag208
aS'appl_1314'
p1174
ag285
ag443
ag1003
ag485
ag306
ag526
ag382
ag1040
ag1001
ag1064
assS'University of Missouri-Columbia Program'
p1175
(dp1176
g5
I3
sg6
(lp1177
S'appl_280'
p1178
ag965
ag827
aS'appl_1378'
p1179
aS'appl_164'
p1180
aS'appl_1216'
p1181
ag478
ag233
aS'appl_775'
p1182
aS'appl_948'
p1183
ag98
ag150
aS'appl_176'
p1184
ag522
ag169
ag981
ag411
aS'appl_1490'
p1185
assS'University of South Alabama Program'
p1186
(dp1187
g5
I2
sg6
(lp1188
S'appl_895'
p1189
ag247
aS'appl_30'
p1190
ag727
aS'appl_544'
p1191
aS'appl_62'
p1192
aS'appl_271'
p1193
aS'appl_1094'
p1194
ag806
aS'appl_1446'
p1195
ag916
aS'appl_979'
p1196
ag540
ag78
aS'appl_1242'
p1197
ag1009
aS'appl_1080'
p1198
aS'appl_826'
p1199
assS'McGaw Medical Center of Northwestern University Program'
p1200
(dp1201
g5
I3
sg6
(lp1202
S'appl_1054'
p1203
aS'appl_1004'
p1204
ag33
aS'appl_86'
p1205
ag571
ag1005
aS'appl_83'
p1206
ag510
ag822
ag412
ag1178
ag117
aS'appl_313'
p1207
ag148
ag271
ag58
assS'University of Puerto Rico Program'
p1208
(dp1209
g5
I6
sg6
(lp1210
g1027
ag1164
ag1124
ag306
ag425
ag432
aS'appl_667'
p1211
ag963
ag1120
aS'appl_1470'
p1212
ag671
aS'appl_233'
p1213
aS'appl_1233'
p1214
assS'University of Massachusetts Program'
p1215
(dp1216
g5
I2
sg6
(lp1217
g449
ag755
ag431
aS'appl_2'
p1218
ag192
ag1006
ag964
ag902
aS'appl_651'
p1219
aS'appl_911'
p1220
ag440
ag723
ag374
aS'appl_28'
p1221
aS'appl_348'
p1222
ag384
ag425
ag771
ag453
ag60
aS'appl_148'
p1223
ag417
ag1009
assS'University of Louisville Program'
p1224
(dp1225
g5
I7
sg6
(lp1226
S'appl_827'
p1227
aS'appl_776'
p1228
aS'appl_566'
p1229
aS'appl_1483'
p1230
ag580
aS'appl_1016'
p1231
ag752
aS'appl_226'
p1232
aS'appl_272'
p1233
aS'appl_1206'
p1234
aS'appl_663'
p1235
ag918
aS'appl_1144'
p1236
assS'Ohio State University Hospital Program'
p1237
(dp1238
g5
I2
sg6
(lp1239
g45
aS'appl_828'
p1240
ag569
aS'appl_1449'
p1241
ag772
ag904
ag867
aS'appl_317'
p1242
ag709
aS'appl_1266'
p1243
ag551
aS'appl_829'
p1244
ag815
ag996
assS'University at Buffalo Program'
p1245
(dp1246
g5
I3
sg6
(lp1247
g812
ag682
ag918
ag411
ag175
ag208
aS'appl_1240'
p1248
aS'appl_401'
p1249
aS'appl_1310'
p1250
aS'appl_831'
p1251
ag1153
ag916
assS'University of California (San Francisco) Program'
p1252
(dp1253
g5
I2
sg6
(lp1254
g938
ag76
ag165
ag177
ag399
ag889
ag776
aS'appl_1509'
p1255
ag960
ag948
ag305
ag59
aS'appl_100'
p1256
ag205
assS'University of Texas Southwestern Medical School Program'
p1257
(dp1258
g5
I7
sg6
(lp1259
g9
ag829
ag770
ag591
ag261
ag497
ag248
ag236
ag290
ag856
ag29
ag105
aS'appl_1076'
p1260
aS'appl_137'
p1261
ag14
ag283
ag220
aS'appl_119'
p1262
ag169
ag337
assS'University of Rochester Program'
p1263
(dp1264
g5
I4
sg6
(lp1265
S'appl_303'
p1266
ag769
ag711
aS'appl_332'
p1267
ag129
aS'appl_1067'
p1268
aS'appl_1197'
p1269
aS'appl_362'
p1270
aS'appl_64'
p1271
ag403
ag1030
ag983
ag240
ag629
ag479
ag359
ag60
assS'University of Kansas School of Medicine Program'
p1272
(dp1273
g5
I8
sg6
(lp1274
g112
ag699
ag493
ag916
ag477
ag996
aS'appl_476'
p1275
ag432
ag326
ag373
aS'appl_838'
p1276
ag177
ag945
ag77
ag462
aS'appl_1257'
p1277
ag256
ag236
ag412
aS'appl_1522'
p1278
ag1122
assS'SUNY Upstate Medical University Program'
p1279
(dp1280
g5
I2
sg6
(lp1281
g673
aS'appl_641'
p1282
aS'appl_725'
p1283
ag917
aS'appl_1481'
p1284
aS'appl_1223'
p1285
aS'appl_947'
p1286
aS'appl_150'
p1287
ag697
aS'appl_187'
p1288
ag301
ag185
ag1123
ag15
ag71
assS'Montefiore Medical Center/Albert Einstein College of Medicine Program'
p1289
(dp1290
g5
I8
sg6
(lp1291
g565
ag1039
ag827
aS'appl_264'
p1292
ag419
aS'appl_1582'
p1293
ag261
ag394
ag1228
ag1137
ag244
aS'appl_1334'
p1294
ag780
ag546
assS'Brookwood Baptist Health Program'
p1295
(dp1296
g5
I8
sg6
(lp1297
S'appl_1148'
p1298
aS'appl_243'
p1299
ag385
ag409
ag450
ag1153
aS'appl_197'
p1300
ag132
ag89
ag690
aS'appl_1453'
p1301
aS'appl_757'
p1302
aS'appl_354'
p1303
aS'appl_355'
p1304
aS'appl_841'
p1305
aS'appl_337'
p1306
ag995
assS'University of Chicago (NorthShore) Program'
p1307
(dp1308
g5
I2
sg6
(lp1309
g449
ag244
aS'appl_1137'
p1310
ag906
aS'appl_528'
p1311
aS'appl_1303'
p1312
ag1091
aS'appl_636'
p1313
aS'appl_1108'
p1314
ag226
ag377
aS'appl_1415'
p1315
assS'University of Pennsylvania Program'
p1316
(dp1317
g5
I6
sg6
(lp1318
g1262
aS'appl_1183'
p1319
ag667
aS'appl_212'
p1320
ag905
aS'appl_292'
p1321
aS'appl_1507'
p1322
ag1028
aS'appl_1406'
p1323
ag1044
ag525
aS'appl_117'
p1324
ag292
ag133
aS'appl_1128'
p1325
aS'appl_688'
p1326
aS'appl_31'
p1327
ag952
ag489
assS'Louisiana State University Program'
p1328
(dp1329
g5
I6
sg6
(lp1330
S'appl_628'
p1331
ag157
ag785
aS'appl_891'
p1332
aS'appl_1211'
p1333
aS'appl_1107'
p1334
aS'appl_1400'
p1335
aS'appl_1235'
p1336
ag1155
ag687
aS'appl_1279'
p1337
ag630
aS'appl_1265'
p1338
ag47
aS'appl_1441'
p1339
ag1294
ag540
aS'appl_701'
p1340
ag468
assS'Wake Forest University School of Medicine Program'
p1341
(dp1342
g5
I7
sg6
(lp1343
g1233
aS'appl_1100'
p1344
aS'appl_167'
p1345
ag927
ag903
ag843
ag952
ag259
aS'appl_1555'
p1346
aS'appl_1228'
p1347
aS'appl_682'
p1348
ag1066
aS'appl_601'
p1349
ag567
aS'appl_493'
p1350
assS'New York Presbyterian Hospital (Columbia Campus) Program'
p1351
(dp1352
g5
I5
sg6
(lp1353
g935
ag840
aS'appl_65'
p1354
aS'appl_830'
p1355
ag546
ag248
ag1276
ag424
ag832
aS'appl_364'
p1356
ag22
aS'appl_375'
p1357
aS'appl_532'
p1358
ag974
ag1165
ag533
ag916
assS'University of Florida College of Medicine Jacksonville Program'
p1359
(dp1360
g5
I5
sg6
(lp1361
g645
ag267
ag218
ag373
aS'appl_815'
p1362
aS'appl_93'
p1363
ag870
aS'appl_1312'
p1364
aS'appl_156'
p1365
aS'appl_848'
p1366
aS'appl_772'
p1367
ag697
ag578
aS'appl_1021'
p1368
aS'appl_569'
p1369
ag133
ag183
aS'appl_53'
p1370
aS'appl_558'
p1371
ag472
ag1323
assS'Texas Tech University (Lubbock) Program'
p1372
(dp1373
g5
I3
sg6
(lp1374
g202
aS'appl_496'
p1375
ag852
ag1321
aS'appl_24'
p1376
ag26
ag248
ag661
ag90
aS'appl_1110'
p1377
ag365
aS'appl_585'
p1378
ag898
assS'Thomas Jefferson University Program'
p1379
(dp1380
g5
I6
sg6
(lp1381
S'appl_780'
p1382
aS'appl_159'
p1383
aS'appl_630'
p1384
aS'appl_638'
p1385
ag791
aS'appl_1060'
p1386
aS'appl_1349'
p1387
ag1185
ag687
aS'appl_13'
p1388
aS'appl_423'
p1389
ag124
aS'appl_1276'
p1390
ag106
ag498
aS'appl_988'
p1391
ag103
aS'appl_592'
p1392
ag1347
ag789
ag1235
ag830
assS'University of Chicago Program'
p1393
(dp1394
g5
I2
sg6
(lp1395
S'appl_1105'
p1396
ag67
ag1027
aS'appl_992'
p1397
ag727
ag242
aS'appl_32'
p1398
aS'appl_1343'
p1399
ag10
ag63
aS'appl_1580'
p1400
ag485
ag233
assS'Loma Linda University Health Education Consortium Program'
p1401
(dp1402
g5
I7
sg6
(lp1403
g799
aS'appl_325'
p1404
ag291
ag1321
ag180
aS'appl_1326'
p1405
ag702
aS'appl_178'
p1406
ag487
aS'appl_833'
p1407
ag267
ag820
aS'appl_1532'
p1408
ag423
assS'University of North Carolina Hospitals Program'
p1409
(dp1410
g5
I2
sg6
(lp1411
S'appl_1117'
p1412
ag1282
aS'appl_877'
p1413
ag314
aS'appl_861'
p1414
ag170
ag1076
ag754
aS'appl_1594'
p1415
ag344
ag262
ag675
ag1396
ag421
aS'appl_589'
p1416
aS'appl_914'
p1417
ag743
aS'appl_1477'
p1418
aS'appl_214'
p1419
assS'Penrose-St Francis Health Services Program'
p1420
(dp1421
g5
I2
sg6
(lp1422
S'appl_49'
p1423
ag49
ag1377
ag490
ag272
ag89
aS'appl_1403'
p1424
ag152
ag728
aS'appl_1557'
p1425
ag1085
aS'appl_426'
p1426
ag442
ag566
aS'appl_52'
p1427
aS'appl_451'
p1428
aS'appl_1166'
p1429
assS'Icahn School of Medicine at Mount Sinai/St Luke\xe2\x80\x99s-Roosevelt Hospital Center Program'
p1430
(dp1431
g5
I4
sg6
(lp1432
g97
aS'appl_534'
p1433
ag848
aS'appl_940'
p1434
ag420
aS'appl_277'
p1435
ag831
ag634
ag533
ag440
ag933
ag643
ag691
ag495
ag976
ag284
ag1298
aS'appl_1251'
p1436
ag1390
ag339
ag1399
assS'Mount Sinai Medical Center of Florida Program'
p1437
(dp1438
g5
I8
sg6
(lp1439
g871
ag1270
ag1222
ag606
aS'appl_1474'
p1440
ag193
ag1196
ag383
aS'appl_458'
p1441
ag715
ag743
ag852
aS'appl_437'
p1442
ag257
aS'appl_492'
p1443
ag1284
ag786
assS'University of Tennessee Medical Center at Knoxville Program'
p1444
(dp1445
g5
I7
sg6
(lp1446
g982
ag646
aS'appl_1207'
p1447
aS'appl_1538'
p1448
aS'appl_294'
p1449
ag674
ag790
aS'appl_629'
p1450
ag179
aS'appl_731'
p1451
ag437
ag881
ag328
assS'University of Hawaii Program'
p1452
(dp1453
g5
I8
sg6
(lp1454
g57
aS'appl_1170'
p1455
ag451
ag209
ag1154
aS'appl_1047'
p1456
ag561
ag286
ag578
ag1261
ag656
ag267
ag752
aS'appl_817'
p1457
ag243
aS'appl_160'
p1458
aS'appl_331'
p1459
ag381
aS'appl_286'
p1460
assS'East Tennessee State University Program'
p1461
(dp1462
g5
I6
sg6
(lp1463
g498
ag1354
aS'appl_1040'
p1464
ag837
aS'appl_1410'
p1465
ag1436
aS'appl_341'
p1466
aS'appl_1109'
p1467
ag1030
ag912
ag973
aS'appl_428'
p1468
ag946
ag42
aS'appl_635'
p1469
aS'appl_284'
p1470
ag1086
aS'appl_1173'
p1471
ag1021
ag217
assS'Rush University Medical Center Program'
p1472
(dp1473
g5
I8
sg6
(lp1474
g1448
ag43
aS'appl_588'
p1475
aS'appl_1386'
p1476
ag883
ag990
ag1244
aS'appl_767'
p1477
ag48
aS'appl_966'
p1478
ag1017
ag418
aS'appl_312'
p1479
ag1397
ag962
ag867
aS'appl_297'
p1480
ag362
ag1407
assS'University of Colorado Program'
p1481
(dp1482
g5
I8
sg6
(lp1483
S'appl_660'
p1484
aS'appl_567'
p1485
aS'appl_1593'
p1486
ag771
ag675
ag1220
ag327
ag802
ag260
ag17
ag726
aS'appl_1241'
p1487
aS'appl_655'
p1488
ag1002
aS'appl_316'
p1489
assS'UCLA Medical Center Program'
p1490
(dp1491
g5
I2
sg6
(lp1492
S'appl_694'
p1493
ag194
ag426
ag1261
ag741
ag203
ag67
ag300
ag371
ag168
ag1063
ag563
aS'appl_777'
p1494
aS'appl_806'
p1495
assS'Stanford University Program'
p1496
(dp1497
g5
I4
sg6
(lp1498
g961
aS'appl_813'
p1499
ag1150
aS'appl_726'
p1500
ag686
ag1248
ag976
ag209
ag1400
ag1099
ag922
ag1076
ag1079
ag796
ag758
aS'appl_497'
p1501
ag28
assS'University of California (Irvine) Program'
p1502
(dp1503
g5
I7
sg6
(lp1504
g642
aS'appl_869'
p1505
ag685
ag605
ag845
ag191
ag1294
ag1091
aS'appl_892'
p1506
aS'appl_1563'
p1507
aS'appl_700'
p1508
ag202
ag1162
ag995
assS'University of Illinois College of Medicine at Chicago Program'
p1509
(dp1510
g5
I7
sg6
(lp1511
g923
ag1283
aS'appl_1089'
p1512
ag1376
ag40
ag1015
ag408
aS'appl_873'
p1513
ag1436
aS'appl_926'
p1514
ag1042
ag1261
ag869
ag618
assS'Orlando Health Program'
p1515
(dp1516
g5
I7
sg6
(lp1517
g450
ag96
ag649
ag878
ag107
ag934
ag1455
aS'appl_495'
p1518
aS'appl_980'
p1519
ag903
aS'appl_412'
p1520
ag362
ag275
ag1398
ag1376
assS'Vidant Medical Center/East Carolina University Program'
p1521
(dp1522
g5
I7
sg6
(lp1523
g52
aS'appl_1524'
p1524
ag683
ag1066
ag78
ag1165
ag698
ag1300
ag180
ag1163
ag1506
ag18
assS'Hofstra Northwell School of Medicine Program'
p1525
(dp1526
g5
I3
sg6
(lp1527
g702
ag843
ag975
aS'appl_739'
p1528
aS'appl_230'
p1529
ag1092
ag1121
ag1124
ag890
ag924
ag1333
ag493
ag1030
ag1260
ag335
assS'University of Arizona Program'
p1530
(dp1531
g5
I7
sg6
(lp1532
g485
aS'appl_1123'
p1533
ag521
ag1304
ag684
ag1466
ag634
ag673
aS'appl_1482'
p1534
aS'appl_1175'
p1535
ag1049
ag1391
aS'appl_353'
p1536
ag1080
ag547
assS'New York Presbyterian Hospital (Cornell Campus) Program'
p1537
(dp1538
g5
I2
sg6
(lp1539
g369
aS'appl_742'
p1540
aS'appl_448'
p1541
aS'appl_1252'
p1542
ag383
ag30
ag1469
ag424
ag1389
ag303
ag772
ag1276
ag1293
ag1375
aS'appl_202'
p1543
assS'University of Texas Health Science Center at Houston Program'
p1544
(dp1545
g5
I8
sg6
(lp1546
S'appl_231'
p1547
ag1027
ag247
ag324
ag1092
ag217
ag553
ag1180
ag181
ag1231
ag89
ag426
ag1542
ag799
ag288
assS'New York Medical College at Westchester Medical Center Program'
p1548
(dp1549
g5
I5
sg6
(lp1550
S'appl_1471'
p1551
ag815
ag28
aS'appl_1132'
p1552
ag43
ag713
ag57
aS'appl_238'
p1553
aS'appl_1187'
p1554
ag1529
ag699
ag283
ag1366
ag1151
assS'Howard University Program'
p1555
(dp1556
g5
I4
sg6
(lp1557
g361
ag362
ag924
aS'appl_1291'
p1558
aS'appl_1071'
p1559
aS'appl_578'
p1560
ag165
aS'appl_637'
p1561
aS'appl_410'
p1562
ag1119
ag716
ag587
ag1518
ag1144
aS'appl_650'
p1563
ag75
ag1513
ag1079
assS'National Institutes of Health Clinical Center Program'
p1564
(dp1565
g5
I4
sg6
(lp1566
g274
ag41
ag269
ag859
ag444
aS'appl_1063'
p1567
aS'appl_981'
p1568
ag307
aS'appl_1485'
p1569
ag757
aS'appl_732'
p1570
ag1110
aS'appl_607'
p1571
ag290
ag933
aS'appl_1253'
p1572
ag1010
ag94
aS'appl_876'
p1573
assS'Texas A&M College of Medicine-Scott and White Program'
p1574
(dp1575
g5
I5
sg6
(lp1576
S'appl_11'
p1577
ag1558
ag125
ag89
ag1406
ag888
ag1315
ag505
aS'appl_396'
p1578
aS'appl_1560'
p1579
aS'appl_881'
p1580
ag791
ag1455
assS'University of California (Davis) Health System Program'
p1581
(dp1582
g5
I8
sg6
(lp1583
g1294
ag1119
aS'appl_237'
p1584
ag629
ag1067
ag98
ag1277
ag1370
ag1016
ag152
ag1178
ag1042
ag476
ag312
ag107
ag1397
assS'Penn State Milton S Hershey Medical Center Program'
p1585
(dp1586
g5
I2
sg6
(lp1587
g248
ag581
ag765
aS'appl_969'
p1588
ag483
ag775
ag1551
ag1017
ag1189
ag728
ag1426
ag769
ag1063
ag1331
ag722
ag289
assS'University of Wisconsin Program'
p1589
(dp1590
g5
I2
sg6
(lp1591
g198
ag1560
ag577
ag1441
ag471
ag108
ag1388
aS'appl_438'
p1592
ag84
aS'appl_751'
p1593
ag1314
aS'appl_851'
p1594
aS'appl_483'
p1595
ag827
ag1332
ag186
assS'Tulane University Program'
p1596
(dp1597
g5
I5
sg6
(lp1598
g62
aS'appl_798'
p1599
ag903
ag1505
ag1066
aS'appl_533'
p1600
ag1155
aS'appl_369'
p1601
aS'appl_311'
p1602
ag97
ag1436
ag1029
ag314
aS'appl_967'
p1603
ag388
ag962
ag335
ag1324
ag509
assS'Stony Brook Medicine/University Hospital Program'
p1604
(dp1605
g5
I3
sg6
(lp1606
g38
aS'appl_1360'
p1607
aS'appl_864'
p1608
ag1260
aS'appl_309'
p1609
ag11
ag564
aS'appl_737'
p1610
ag1355
aS'appl_1401'
p1611
ag901
ag1020
ag833
ag126
aS'appl_1526'
p1612
aS'appl_788'
p1613
ag649
assS'Loyola University Program'
p1614
(dp1615
g5
I6
sg6
(lp1616
g123
aS'appl_115'
p1617
aS'appl_1391'
p1618
aS'appl_68'
p1619
ag1365
ag432
ag98
ag486
ag877
ag141
ag892
aS'appl_1017'
p1620
aS'appl_961'
p1621
assS'Methodist Hospital (Houston) Program'
p1622
(dp1623
g5
I4
sg6
(lp1624
g1269
aS'appl_883'
p1625
ag789
ag1571
ag990
ag1185
aS'appl_507'
p1626
aS'appl_801'
p1627
ag1429
ag1339
ag647
ag814
aS'appl_814'
p1628
ag534
ag726
ag193
ag1412
ag1080
assS'Winthrop-University Hospital Program'
p1629
(dp1630
g5
I8
sg6
(lp1631
g934
ag131
ag1344
ag1169
aS'appl_318'
p1632
ag445
ag879
ag1429
ag169
ag1425
ag903
ag995
ag74
ag965
ag1089
assS'Louisiana State University (Shreveport) Program'
p1633
(dp1634
g5
I3
sg6
(lp1635
g361
aS'appl_486'
p1636
aS'appl_1447'
p1637
aS'appl_464'
p1638
ag407
ag1493
ag247
aS'appl_1074'
p1639
ag540
ag722
aS'appl_155'
p1640
ag1628
aS'appl_1155'
p1641
ag1030
ag183
assS'University of Missouri at Kansas City Program'
p1642
(dp1643
g5
I4
sg6
(lp1644
g478
ag195
ag1220
ag244
ag743
ag50
aS'appl_1029'
p1645
ag1465
ag1068
aS'appl_323'
p1646
ag434
ag841
ag1507
ag294
ag394
ag655
ag11
asssS'results'
p1647
(dp1648
g3
(lp1649
g9
ag11
ag10
ag8
asg19
(lp1650
g23
ag24
ag22
ag25
asg35
(lp1651
g46
ag40
ag44
ag39
ag42
asg1289
(lp1652
g1293
ag1137
ag1292
ag419
ag780
ag394
ag565
asg79
(lp1653
g85
ag93
ag92
ag88
ag82
ag86
ag84
ag90
asg1401
(lp1654
g1404
ag799
ag1405
ag1408
ag1407
ag487
ag423
asg100
(lp1655
g106
ag108
ag104
ag103
ag105
asg119
(lp1656
g128
ag126
ag125
ag124
ag127
ag129
asg136
(lp1657
g143
ag139
ag144
ag142
asg172
(lp1658
g175
ag177
ag176
asg187
(lp1659
g191
ag195
ag192
asg210
(lp1660
g215
ag213
ag214
ag217
ag216
asg230
(lp1661
g235
ag205
asg249
(lp1662
g256
ag133
ag257
ag255
ag252
ag253
asg263
(lp1663
g272
ag270
ag271
ag268
ag266
ag164
asg280
(lp1664
g286
ag289
ag284
ag283
ag287
ag288
ag285
asg296
(lp1665
g301
ag300
ag299
ag303
ag302
ag304
asg332
(lp1666
g335
ag336
ag219
asg749
(lp1667
g753
ag634
ag365
asg366
(lp1668
g140
ag372
ag375
ag376
ag141
ag371
asg378
(lp1669
g381
ag386
ag388
ag391
ag383
ag382
ag390
asg396
(lp1670
g401
ag399
ag400
asg1525
(lp1671
g1528
ag975
ag702
asg427
(lp1672
g430
ag403
asg446
(lp1673
g83
ag451
ag239
asg463
(lp1674
g466
ag468
ag470
ag52
ag471
asg480
(lp1675
g484
ag483
ag435
asg500
(lp1676
g504
ag254
ag503
asg517
(lp1677
g523
ag521
ag274
ag522
ag520
ag112
asg530
(lp1678
g538
ag534
ag533
ag537
ag510
ag539
asg542
(lp1679
g546
ag404
ag240
ag545
ag412
ag547
asg572
(lp1680
g579
ag535
ag575
ag370
ag576
ag130
asg582
(lp1681
g588
ag587
ag586
ag585
ag77
asg595
(lp1682
g598
ag599
ag602
ag601
ag479
asg608
(lp1683
g614
ag612
ag616
ag613
ag615
ag611
asg622
(lp1684
g625
ag343
asg636
(lp1685
g639
ag648
ag647
ag643
ag641
ag644
asg1629
(lp1686
g1344
ag1632
ag1425
ag1169
ag1429
ag169
ag903
ag131
asg651
(lp1687
g656
ag657
ag592
ag654
ag630
ag655
asg664
(lp1688
g668
ag670
ag669
ag389
ag671
asg678
(lp1689
g684
ag681
ag355
ag135
ag640
ag683
ag621
ag685
asg692
(lp1690
g228
ag618
asg703
(lp1691
g710
ag712
ag707
ag709
ag708
ag706
ag384
asg1564
(lp1692
g269
ag444
ag41
ag859
asg735
(lp1693
g739
ag741
ag740
ag738
asg766
(lp1694
g772
ag773
asg908
(lp1695
g727
ag912
ag911
asg781
(lp1696
g785
ag784
asg792
(lp1697
g795
ag190
asg803
(lp1698
g417
ag806
asg817
(lp1699
g823
ag824
ag820
ag821
ag822
asg834
(lp1700
g837
ag838
ag839
asg849
(lp1701
g857
ag855
ag374
ag853
ag854
ag856
asg860
(lp1702
g865
ag867
ag868
ag866
ag14
ag864
ag233
asg884
(lp1703
g695
ag48
ag887
ag357
ag890
ag888
ag311
ag889
asg1157
(lp1704
g1162
ag16
ag900
ag1161
ag1160
ag1128
asg894
(lp1705
g809
ag577
ag897
ag898
ag899
ag901
asg1537
(lp1706
g369
ag1540
asg154
(lp1707
g157
ag160
ag161
ag159
ag158
ag29
asg919
(lp1708
g922
ag605
asg930
(lp1709
g936
ag473
ag937
ag934
ag939
ag935
ag933
ag362
asg941
(lp1710
g946
ag847
asg957
(lp1711
g863
ag960
asg969
(lp1712
g51
ag570
ag972
ag944
ag974
ag571
ag869
ag973
asg987
(lp1713
g991
ag422
asg998
(lp1714
g672
ag469
ag1004
ag1001
ag810
ag1002
ag1005
ag1003
asg1011
(lp1715
g1014
ag551
asg1023
(lp1716
g1029
ag603
ag1026
ag514
ag166
ag977
asg1034
(lp1717
g1037
ag1038
ag1039
ag345
asg1046
(lp1718
g1051
ag1050
ag774
ag151
ag1052
ag209
asg1059
(lp1719
g686
ag1062
ag754
asg1069
(lp1720
g1074
ag1072
ag1073
ag110
ag600
asg1393
(lp1721
g1396
ag67
asg1093
(lp1722
g203
ag1096
ag1097
ag1028
ag915
asg1103
(lp1723
g1107
ag1106
ag91
ag1108
ag87
asg1116
(lp1724
g1121
ag1120
asg1130
(lp1725
g627
ag645
ag1133
ag1112
asg1515
(lp1726
g450
ag1518
ag107
ag878
ag1455
ag96
ag649
asg1139
(lp1727
g1142
ag509
ag1143
ag185
ag715
asg1147
(lp1728
g789
ag536
asg1166
(lp1729
g234
ag1171
ag1170
ag1174
ag1172
ag1173
ag208
asg1175
(lp1730
g965
ag827
ag1178
asg1186
(lp1731
g1190
ag1189
asg1200
(lp1732
g1204
ag1203
ag33
asg1208
(lp1733
g1211
ag963
ag1124
ag1164
ag425
ag306
asg1215
(lp1734
g431
ag755
asg1224
(lp1735
g1227
ag1230
ag1229
ag1228
ag752
ag580
ag1231
asg1237
(lp1736
g45
ag1240
asg1245
(lp1737
g682
ag812
ag918
asg1252
(lp1738
g938
ag76
asg1257
(lp1739
g236
ag770
ag248
ag497
ag591
ag829
ag261
asg1263
(lp1740
g1267
ag711
ag769
ag1266
asg1272
(lp1741
g945
ag699
ag916
ag1275
ag493
ag477
ag996
ag373
asg1279
(lp1742
g1283
ag673
asg1574
(lp1743
g1558
ag1315
ag1577
ag1406
ag89
asg54
(lp1744
g57
ag61
ag62
ag58
ag59
ag60
asg1295
(lp1745
g385
ag1153
ag1301
ag1299
ag1298
ag132
ag690
ag409
asg1307
(lp1746
g449
ag244
asg1316
(lp1747
g1320
ag667
ag1319
ag905
ag1262
ag1321
asg1420
(lp1748
g1423
ag49
asg1341
(lp1749
g1233
ag843
ag952
ag1345
ag927
ag1346
ag259
asg1351
(lp1750
g840
ag1355
ag424
ag1354
ag1276
asg1359
(lp1751
g267
ag870
ag218
ag1363
ag1362
asg1372
(lp1752
g202
ag1375
ag852
asg1379
(lp1753
g1384
ag1383
ag1385
ag1386
ag791
ag1382
asg1081
(lp1754
g445
ag99
ag1085
ag1084
ag1088
ag1087
ag1086
ag222
asg347
(lp1755
g351
ag358
ag356
ag353
ag352
ag350
ag354
asg1409
(lp1756
g1282
ag1412
asg1328
(lp1757
g1335
ag1334
ag1336
ag1332
ag1331
ag1333
asg1430
(lp1758
g1433
ag1434
ag848
ag97
asg1437
(lp1759
g193
ag1196
ag1440
ag1222
ag1270
ag606
ag871
ag1441
asg1444
(lp1760
g674
ag646
ag1450
ag1449
ag982
ag1447
ag790
asg1452
(lp1761
g1458
ag561
ag1457
ag1154
ag1456
ag1459
ag578
ag1261
asg1461
(lp1762
g1464
ag1467
ag498
ag1466
ag1436
ag1465
asg1472
(lp1763
g1448
ag1477
ag1478
ag1476
ag990
ag1244
ag1475
ag883
asg1481
(lp1764
g1485
ag1486
ag1220
ag675
ag771
ag1484
ag327
ag802
asg1490
(lp1765
g194
ag1493
asg1496
(lp1766
g1500
ag961
ag1499
ag1150
asg1502
(lp1767
g1508
ag1506
ag1507
ag642
ag995
ag845
ag1091
asg1509
(lp1768
g1376
ag1512
ag1514
ag408
ag1513
ag1015
ag923
asg316
(lp1769
g319
ag322
ag321
ag326
ag325
ag323
ag320
ag34
asg1521
(lp1770
g698
ag1524
ag1300
ag78
ag180
ag1165
ag1163
asg413
(lp1771
g420
ag291
ag418
ag416
ag421
asg1530
(lp1772
g1049
ag1304
ag1535
ag485
ag1534
ag1533
ag1391
asg556
(lp1773
g562
ag467
ag559
ag564
ag560
ag563
asg1544
(lp1774
g324
ag1180
ag553
ag1092
ag1547
ag247
ag181
ag1027
asg1548
(lp1775
g1552
ag1551
ag43
ag815
ag28
asg1555
(lp1776
g1561
ag924
ag1559
ag165
asg872
(lp1777
g387
ag876
ag875
ag881
ag880
ag879
ag877
ag402
asg718
(lp1778
g721
ag122
ag724
ag722
ag723
ag220
ag687
asg978
(lp1779
g948
ag981
ag716
ag985
ag984
ag243
ag697
ag983
asg1581
(lp1780
g1067
ag1584
ag1119
ag1370
ag1294
ag1277
ag629
ag98
asg1585
(lp1781
g765
ag581
asg1589
(lp1782
g1560
ag198
asg1596
(lp1783
g1600
ag1505
ag1599
ag1066
ag1155
asg1604
(lp1784
g38
ag1608
ag1607
asg1614
(lp1785
g1619
ag1365
ag1618
ag1617
ag123
ag432
asg1622
(lp1786
g1269
ag1185
ag1625
ag1571
asg1633
(lp1787
g361
ag1637
ag1636
asg1642
(lp1788
g1645
ag478
ag50
ag743
assS'applicants'
p1789
(dp1790
g162
(lp1791
g119
ag154
asg991
(lp1792
g987
ag19
ag1525
asg833
(lp1793
g1046
ag817
ag1237
ag1444
ag1604
asg1567
(lp1794
g1564
asg1386
(lp1795
g1379
ag136
ag1116
ag1420
asg944
(lp1796
g969
ag941
asg443
(lp1797
g1166
ag1263
ag1245
ag427
ag1604
ag1509
ag930
asg1268
(lp1798
g1401
ag1263
ag316
ag263
ag1537
asS'appl_1064'
p1799
(lp1800
g1444
ag249
asg503
(lp1801
g1393
ag1341
ag500
asg70
(lp1802
g1461
ag1379
ag35
ag54
ag1496
asg311
(lp1803
g296
ag884
ag1544
ag1059
asg1619
(lp1804
g678
ag1614
asg655
(lp1805
g1642
ag651
ag1496
asg313
(lp1806
g296
ag1139
ag1633
ag1472
asg1354
(lp1807
g1351
ag1461
ag316
ag530
asg1271
(lp1808
g1263
ag172
asg1165
(lp1809
g1351
ag1521
ag1157
asg1192
(lp1810
g1034
ag1186
asS'appl_61'
p1811
(lp1812
g884
ag1341
asS'appl_60'
p1813
(lp1814
g1081
ag1224
asg295
(lp1815
g1420
ag280
ag1272
ag1252
asS'appl_1230'
p1816
(lp1817
g803
asg1040
(lp1818
g1166
ag1589
ag1409
ag230
ag1034
ag1139
asg548
(lp1819
g542
ag172
asS'appl_1475'
p1820
(lp1821
g1437
ag154
ag987
ag781
asg1440
(lp1822
g1437
ag1481
ag1502
ag595
asg1418
(lp1823
g1409
ag622
asg306
(lp1824
g749
ag296
ag1186
ag1208
ag1166
asg1551
(lp1825
g1548
ag446
ag1642
ag1130
ag1585
asg1212
(lp1826
g1208
ag692
asg192
(lp1827
g1215
ag463
ag1393
ag316
ag187
asg360
(lp1828
g817
ag1023
ag1509
ag500
ag1351
ag347
ag595
asg1008
(lp1829
g1401
ag998
ag1103
ag849
asg1005
(lp1830
g998
ag1200
asg1334
(lp1831
g1328
ag749
ag703
ag1525
asS'appl_1106'
p1832
(lp1833
g703
asg927
(lp1834
g1341
ag919
asg507
(lp1835
g1581
ag1481
ag1444
ag1502
ag366
ag500
asg105
(lp1836
g172
ag100
ag595
ag1257
asg256
(lp1837
g249
ag446
ag1272
ag530
asS'appl_1505'
p1838
(lp1839
g1157
ag1496
ag1548
asS'appl_1504'
p1840
(lp1841
g718
asg1322
(lp1842
g1444
ag1139
ag1502
ag1316
asS'appl_1506'
p1843
(lp1844
g517
ag1224
ag1069
ag79
asg1255
(lp1845
g3
ag187
ag803
ag1175
ag1252
ag1548
asg823
(lp1846
g1555
ag817
ag79
ag608
ag187
asg1467
(lp1847
g296
ag100
ag119
ag230
ag1461
asg1314
(lp1848
g1245
ag1224
ag1589
ag884
ag1237
ag1307
asg191
(lp1849
g187
ag1502
ag919
ag119
ag249
ag636
asg936
(lp1850
g930
ag1509
ag1537
asS'appl_196'
p1851
(lp1852
g1581
asg1300
(lp1853
g664
ag1581
ag1521
ag1295
ag1341
asg47
(lp1854
g1328
ag781
ag35
ag530
asg1001
(lp1855
g316
ag998
ag1166
asg1038
(lp1856
g735
ag908
ag781
ag1034
asS'appl_193'
p1857
(lp1858
g998
ag1437
ag664
asg1050
(lp1859
g1614
ag1046
ag136
asS'appl_199'
p1860
(lp1861
g1509
ag296
ag1393
ag210
ag1328
asg1541
(lp1862
g1537
ag1564
ag413
ag1548
ag517
ag1420
asg673
(lp1863
g1279
ag1116
ag1023
ag1530
ag1011
ag664
asg854
(lp1864
g480
ag1103
ag54
ag100
ag849
ag872
asg769
(lp1865
g998
ag1263
ag1430
ag1585
ag1521
ag766
ag1224
asS'appl_998'
p1866
(lp1867
g263
asg891
(lp1868
g378
ag1379
ag941
ag987
ag636
ag884
asg227
(lp1869
g210
ag1059
ag1409
ag703
asg207
(lp1870
g332
ag1279
ag1430
ag187
ag1530
ag1589
asg438
(lp1871
g1139
ag427
ag1081
ag366
asS'appl_221'
p1872
(lp1873
g941
asg1232
(lp1874
g1224
ag1437
ag930
ag1379
ag1614
asS'appl_227'
p1875
(lp1876
g154
ag582
ag556
asg540
(lp1877
g1537
ag1633
ag1328
ag556
ag1186
ag1555
ag530
ag766
ag332
ag749
asg362
(lp1878
g1437
ag347
ag1409
ag1472
ag930
ag1555
ag1515
asg1021
(lp1879
g1011
ag803
ag1093
ag1059
ag1316
ag280
ag210
ag1461
ag378
asg1390
(lp1880
g1633
ag1208
ag1379
ag1147
ag480
ag1430
asg38
(lp1881
g1604
ag678
ag1023
ag35
ag622
ag792
asg384
(lp1882
g1215
ag703
ag378
asg1144
(lp1883
g1555
ag1139
ag1604
asS'appl_1272'
p1884
(lp1885
g427
ag280
asg233
(lp1886
g1103
ag849
ag1175
ag332
ag1530
ag860
ag230
ag1393
asS'appl_539'
p1887
(lp1888
g463
ag556
asg830
(lp1889
g817
ag1379
ag413
asg614
(lp1890
g366
ag1574
ag1642
ag749
ag1093
ag608
asg1433
(lp1891
g1430
asS'appl_535'
p1892
(lp1893
g718
asg1358
(lp1894
g1103
ag1642
ag1351
asg1600
(lp1895
g1444
ag1596
asg866
(lp1896
g79
ag860
ag1622
asg1073
(lp1897
g1069
ag703
ag622
ag651
asS'appl_1189'
p1898
(lp1899
g608
ag332
asg169
(lp1900
g154
ag1175
ag1629
ag1257
ag396
ag1186
ag1490
ag1069
asg283
(lp1901
g1257
ag396
ag1548
ag280
asS'appl_1184'
p1902
(lp1903
g766
ag1093
ag35
ag1544
asg1554
(lp1904
g517
ag884
ag1548
asg484
(lp1905
g172
ag1614
ag1502
ag480
ag280
ag1208
asg240
(lp1906
g1263
ag542
ag1555
ag230
ag1604
ag1237
asg69
(lp1907
g1502
ag678
ag1069
ag54
ag1629
asg1319
(lp1908
g446
ag1316
asg625
(lp1909
g1614
ag1515
ag622
ag280
asg90
(lp1910
g79
ag1295
ag1372
ag1430
asg632
(lp1911
g781
ag1023
ag1581
ag622
asg1017
(lp1912
g530
ag1011
ag1420
ag1585
ag480
ag3
ag1472
ag1059
asg606
(lp1913
g1069
ag595
ag463
ag210
ag622
ag1437
asg660
(lp1914
g651
ag1379
ag1502
asg1203
(lp1915
g781
ag396
ag1200
ag556
asg1145
(lp1916
g1139
ag172
ag1237
ag884
asg723
(lp1917
g1215
ag718
ag1279
ag608
ag1175
asg128
(lp1918
g703
ag280
ag1589
ag119
ag378
asg473
(lp1919
g749
ag347
ag930
ag463
ag1328
ag651
ag1093
asg1468
(lp1920
g154
ag1622
ag1452
ag347
ag249
ag1461
ag210
ag54
ag1351
asg1062
(lp1921
g1059
ag542
ag1139
asg912
(lp1922
g908
ag792
ag19
ag884
ag378
ag1461
ag941
asS'appl_74'
p1923
(lp1924
sg127
(lp1925
g480
ag1200
ag651
ag119
ag1461
ag919
ag1023
asg165
(lp1926
g154
ag1555
ag1252
asg1135
(lp1927
g1130
ag378
ag413
asg350
(lp1928
g1452
ag347
asS'appl_71'
p1929
(lp1930
g1257
ag1307
ag1200
ag1420
ag1574
asg170
(lp1931
g1393
ag1059
ag834
ag154
ag1409
asS'appl_73'
p1932
(lp1933
g1604
ag849
asg492
(lp1934
g1544
ag530
ag480
ag1147
ag1581
ag154
ag316
asg97
(lp1935
g1596
ag1245
ag1548
ag1430
ag100
ag79
asS'appl_1466'
p1936
(lp1937
g19
ag1215
ag296
ag1093
ag1564
asS'appl_1467'
p1938
(lp1939
g664
ag735
ag978
ag1257
asS'appl_1464'
p1940
(lp1941
g894
ag735
ag849
ag427
ag1103
asg369
(lp1942
g1537
ag366
asg795
(lp1943
g136
ag792
asg1042
(lp1944
g1509
ag1581
ag595
ag817
ag542
ag1034
asS'appl_1460'
p1945
(lp1946
g1295
ag894
ag957
asg1138
(lp1947
g1130
ag930
ag1633
asg922
(lp1948
g463
ag919
ag1585
ag849
ag1023
ag1496
asS'appl_1513'
p1949
(lp1950
g1237
ag1420
ag735
ag1208
asS'appl_1510'
p1951
(lp1952
g347
ag1409
asg972
(lp1953
g969
ag1081
ag1059
asg565
(lp1954
g941
ag1401
ag556
ag79
ag1186
ag136
ag1289
asg150
(lp1955
g136
ag1175
ag463
ag1472
ag941
ag296
ag1289
asS'appl_1514'
p1956
(lp1957
g1093
ag1252
ag1548
asg668
(lp1958
g664
asS'appl_1518'
p1959
(lp1960
g249
ag919
ag1437
ag749
ag572
asS'appl_1519'
p1961
(lp1962
g79
ag332
ag987
asg589
(lp1963
g884
ag969
ag582
ag249
asg1441
(lp1964
g1589
ag1437
ag1596
ag834
asg1428
(lp1965
g19
ag1502
ag1420
ag3
ag396
asg142
(lp1966
g987
ag136
ag1116
ag884
asg953
(lp1967
g1237
ag941
ag1461
ag1525
ag703
ag969
asg773
(lp1968
g1166
ag792
ag1564
ag187
ag766
asS'appl_455'
p1969
(lp1970
g1263
ag582
ag1245
ag792
asg114
(lp1971
g1437
ag1461
ag100
ag366
ag446
asg388
(lp1972
g1521
ag1401
ag1622
ag1589
ag1596
ag378
ag969
asg376
(lp1973
g366
ag1166
ag1530
asg1288
(lp1974
g622
ag1279
ag500
asg815
(lp1975
g1237
ag781
ag413
ag834
ag803
ag1548
asS'appl_185'
p1976
(lp1977
g766
ag1444
ag1420
asg260
(lp1978
g249
ag1481
ag941
ag622
asg902
(lp1979
g280
ag834
ag1379
ag172
ag1215
ag622
ag1401
ag894
asg452
(lp1980
g446
ag1437
asg219
(lp1981
g210
ag332
ag781
ag987
ag1461
ag1157
asg467
(lp1982
g556
ag849
ag463
ag54
ag1521
asS'appl_189'
p1983
(lp1984
g1537
asS'appl_188'
p1985
(lp1986
g280
ag678
ag860
ag1069
asS'appl_239'
p1987
(lp1988
g1023
ag1046
ag1316
asg1553
(lp1989
g1548
ag1130
ag1574
asg1098
(lp1990
g1564
ag1629
ag1093
ag1103
ag296
asg1391
(lp1991
g1530
ag1379
ag1034
ag1509
asg339
(lp1992
g718
ag332
ag1430
ag54
asg928
(lp1993
g1515
ag919
asg1584
(lp1994
g1175
ag1224
ag969
ag1103
ag19
ag1046
ag1581
asg883
(lp1995
g872
ag1215
ag347
ag1252
ag957
ag1472
asg1547
(lp1996
g542
ag1544
asg1529
(lp1997
g1537
ag1452
ag1548
ag1525
ag792
asg1213
(lp1998
g1200
ag1452
ag1208
asg65
(lp1999
g19
ag1237
ag1252
ag446
ag54
asg901
(lp2000
g100
ag1490
ag1409
ag1093
ag1604
ag1633
ag894
ag1166
asg1087
(lp2001
g1081
ag1157
ag263
asg570
(lp2002
g969
ag651
ag1589
ag556
ag1272
ag1461
asg811
(lp2003
g316
ag608
ag803
ag978
ag1011
asS'appl_1262'
p2004
(lp2005
g396
ag1081
asg77
(lp2006
g1272
ag210
ag54
ag582
ag692
asg302
(lp2007
g1093
ag517
ag296
asg1338
(lp2008
g1328
ag582
asg1243
(lp2009
g1011
ag1237
asS'appl_1267'
p2010
(lp2011
g1116
ag849
ag703
ag1537
asS'appl_521'
p2012
(lp2013
g1622
ag919
asg1151
(lp2014
g1548
ag1147
ag1420
ag1544
ag908
asS'appl_523'
p2015
(lp2016
g1175
ag1289
ag735
ag941
ag1069
ag792
ag500
asg341
(lp2017
g332
asS'appl_525'
p2018
(lp2019
g427
ag530
ag651
ag735
asg983
(lp2020
g1263
ag1515
ag978
ag1130
asS'appl_527'
p2021
(lp2022
g1157
asg1010
(lp2023
g998
ag556
ag1175
ag1564
ag230
asg27
(lp2024
g1633
ag595
ag19
ag849
asg1311
(lp2025
g908
ag1307
ag803
ag1328
asg274
(lp2026
g332
ag517
ag1509
ag1564
ag263
asg244
(lp2027
g1116
ag1069
ag1252
ag1307
ag3
ag1289
ag230
ag1103
ag1642
asS'appl_1196'
p2028
(lp2029
g366
ag860
ag1186
ag1642
ag1175
asg1269
(lp2030
g1622
ag1263
asS'appl_1194'
p2031
(lp2032
g1521
ag1166
asS'appl_1195'
p2033
(lp2034
g446
asg1125
(lp2035
g1116
ag1581
ag463
ag622
asS'appl_1193'
p2036
(lp2037
g1544
ag1629
ag1472
asS'appl_1190'
p2038
(lp2039
g941
ag172
asS'appl_1191'
p2040
(lp2041
g930
ag263
ag1046
asg1464
(lp2042
g1295
ag1461
ag781
ag1147
asg118
(lp2043
g517
ag100
ag766
asS'appl_1042'
p2044
(lp2045
g703
asg15
(lp2046
g1596
ag556
ag517
ag849
ag3
ag636
ag1279
asg974
(lp2047
g636
ag1351
ag969
asg108
(lp2048
g100
ag1295
ag1589
ag636
ag427
ag230
asS'appl_1046'
p2049
(lp2050
sg1456
(lp2051
g1452
ag1237
ag792
ag1215
ag941
asg273
(lp2052
g154
ag263
ag1589
ag1130
ag817
asg677
(lp2053
g1372
ag664
ag1481
asg1423
(lp2054
g651
ag781
ag908
ag1379
ag1186
ag1420
asg75
(lp2055
g500
ag347
ag1555
ag54
ag1351
asS'appl_41'
p2056
(lp2057
g1175
ag1186
asg846
(lp2058
g1139
ag1237
ag834
asS'appl_43'
p2059
(lp2060
g1046
asg657
(lp2061
g651
ag136
ag908
asg654
(lp2062
g908
ag651
asg967
(lp2063
g957
ag692
asS'appl_47'
p2064
(lp2065
g1372
ag1093
asS'appl_46'
p2066
(lp2067
sg1301
(lp2068
g1295
ag718
ag1011
ag781
ag872
asS'appl_1452'
p2069
(lp2070
g1548
ag19
ag792
ag749
ag1509
ag530
asS'appl_1451'
p2071
(lp2072
g908
ag1272
ag1642
asg434
(lp2073
g427
ag1175
ag1642
ag54
asS'appl_1457'
p2074
(lp2075
g941
ag582
asg758
(lp2076
g1496
ag3
ag1224
ag749
ag1237
ag817
asg628
(lp2077
g413
ag1081
ag1139
ag1596
ag622
asg314
(lp2078
g1596
ag1629
ag172
ag1069
ag296
ag1130
ag622
ag1409
asg923
(lp2079
g136
ag919
ag1093
ag1509
asg554
(lp2080
g1574
ag1452
ag542
asS'appl_1527'
p2081
(lp2082
g1420
asg1612
(lp2083
g1509
ag908
ag1604
ag54
ag1530
ag1147
asg442
(lp2084
g427
ag1093
ag1642
ag1420
ag230
asg1524
(lp2085
g1502
ag1372
ag1596
ag413
ag1515
ag1521
asg997
(lp2086
g1430
ag834
ag316
ag517
ag987
ag1596
asg1278
(lp2087
g480
ag1252
ag1555
ag1481
ag1272
asg52
(lp2088
g187
ag463
ag249
ag3
ag1521
ag1157
ag35
ag1116
ag1509
ag1237
asS'appl_1520'
p2089
(lp2090
g3
ag249
ag54
ag919
asS'appl_1529'
p2091
(lp2092
g1544
ag396
ag517
asg307
(lp2093
g366
ag296
ag1564
ag1585
ag463
asg1305
(lp2094
g1200
ag427
ag1252
ag1295
ag463
asS'appl_846'
p2095
(lp2096
g1186
ag1116
asg721
(lp2097
g316
ag718
ag1515
asg324
(lp2098
g1544
ag316
ag1409
ag1023
asg139
(lp2099
g803
ag136
asg53
(lp2100
g249
ag1046
ag530
ag1521
ag817
ag735
ag35
ag636
ag651
asg1426
(lp2101
g1437
ag1585
ag1530
ag1420
asS'appl_427'
p2102
(lp2103
g1564
ag446
asS'appl_420'
p2104
(lp2105
g1548
ag1589
ag1614
ag1139
ag1490
asS'appl_421'
p2106
(lp2107
g678
ag803
asg877
(lp2108
g1208
ag1351
ag1509
ag919
ag872
ag1614
ag1393
asg1389
(lp2109
g1093
ag1537
ag1379
ag1307
asg1097
(lp2110
g556
ag1245
ag1093
asS'appl_554'
p2111
(lp2112
g1023
ag1116
asg962
(lp2113
g100
ag1472
ag957
ag582
ag1596
ag1564
ag1509
asg237
(lp2114
g884
ag1341
ag463
ag230
asg197
(lp2115
g187
ag884
ag1530
ag1295
ag1420
ag1130
ag1537
ag480
asg514
(lp2116
g1023
ag500
ag817
ag480
asg1102
(lp2117
g1574
ag1461
ag1093
ag280
ag1581
ag1245
ag849
ag860
asg671
(lp2118
g1208
ag664
ag1614
ag957
ag1633
ag1341
ag530
asg321
(lp2119
g1581
ag1544
ag930
ag249
ag463
ag316
asg590
(lp2120
g1279
ag1481
ag582
asg462
(lp2121
g1272
ag446
ag1093
ag1175
asS'appl_146'
p2122
(lp2123
g872
ag1581
ag781
ag1490
asg245
(lp2124
g427
ag366
ag1081
ag230
asg1074
(lp2125
g978
ag1614
ag1069
asg722
(lp2126
g703
ag781
ag749
ag54
ag1633
ag718
ag1515
ag1585
ag280
asg1451
(lp2127
g427
ag1444
ag987
asg1570
(lp2128
g978
ag1564
ag1581
ag908
asg992
(lp2129
g1409
ag987
ag1307
ag1279
asg461
(lp2130
g987
ag446
ag622
ag1103
ag1147
ag1555
ag500
ag249
ag154
asS'appl_735'
p2131
(lp2132
g908
ag1059
ag1069
ag636
asg1134
(lp2133
g636
ag1081
ag1237
ag608
ag1130
ag1093
asg1610
(lp2134
g1633
ag1604
ag1642
ag978
asS'appl_738'
p2135
(lp2136
g1147
ag1295
ag1581
asg1528
(lp2137
g413
ag1525
ag1490
ag1245
ag280
asS'appl_251'
p2138
(lp2139
g1023
asg1052
(lp2140
g749
ag1046
asg1163
(lp2141
g860
ag1157
ag100
ag1521
ag1581
ag1263
asg712
(lp2142
g703
ag1139
ag1629
ag210
ag1564
asg57
(lp2143
g1069
ag54
ag1548
ag1452
asg832
(lp2144
g1351
ag817
ag1208
asg754
(lp2145
g749
ag1409
ag542
ag378
ag987
ag1059
asg361
(lp2146
g427
ag1633
ag347
ag1555
ag1147
asg1019
(lp2147
g1011
asg93
(lp2148
g1059
ag595
ag1295
ag735
ag79
ag1461
asS'appl_1214'
p2149
(lp2150
g446
ag735
ag1444
ag1521
asg780
(lp2151
g978
ag766
ag1289
ag894
ag692
ag957
ag1157
asg1181
(lp2152
g1011
ag1614
ag1175
ag530
asg1333
(lp2153
g987
ag930
ag500
ag1525
ag1328
asg686
(lp2154
g978
ag1059
ag678
ag463
ag1401
ag1496
ag1525
ag154
asg252
(lp2155
g249
ag749
ag1496
asg409
(lp2156
g1490
ag1555
ag703
ag396
ag1295
ag651
asS'appl_886'
p2157
(lp2158
g1166
ag1509
ag1011
ag572
asS'appl_887'
p2159
(lp2160
g1208
ag413
ag332
ag749
ag1257
ag500
ag1245
ag172
asg945
(lp2161
g1272
ag1157
ag480
ag941
asS'appl_885'
p2162
(lp2163
g1502
asg1090
(lp2164
g1401
ag1081
asg1625
(lp2165
g1166
ag1622
asg890
(lp2166
g884
ag542
ag1444
ag1525
asg1580
(lp2167
g1574
ag187
ag1186
ag987
ag517
asg1371
(lp2168
g1359
asS'appl_559'
p2169
(lp2170
g1409
ag1208
ag136
ag1581
ag957
ag1530
ag1502
asS'appl_888'
p2171
(lp2172
g766
asg194
(lp2173
g1351
ag1502
ag54
ag500
ag735
ag1490
ag187
asg335
(lp2174
g332
ag1596
ag622
ag1525
asg647
(lp2175
g1272
ag636
ag1351
ag987
ag396
ag1622
ag781
asg567
(lp2176
g517
ag1341
ag556
ag119
ag187
asg1054
(lp2177
g1046
ag678
ag35
ag987
ag1237
ag1139
ag79
asg115
(lp2178
g987
ag100
asS'appl_1324'
p2179
(lp2180
g1401
ag556
ag187
ag1257
asS'appl_1327'
p2181
(lp2182
g280
ag1200
ag849
ag1585
ag1372
asg1405
(lp2183
g1401
asg445
(lp2184
g1081
ag427
ag1629
ag834
asg696
(lp2185
g930
ag692
ag1452
ag347
ag664
ag872
asS'appl_958'
p2186
(lp2187
g542
ag1490
ag530
asg650
(lp2188
g636
ag1409
ag651
ag1139
ag1252
asg869
(lp2189
g1272
ag1509
ag100
ag969
ag1215
ag860
asS'appl_951'
p2190
(lp2191
g718
ag517
ag582
asg352
(lp2192
g1279
ag1564
ag347
asg153
(lp2193
g792
ag136
ag595
ag969
ag187
asg215
(lp2194
g969
ag210
ag1437
ag1629
ag1272
asg196
(lp2195
g1351
ag834
ag817
ag608
ag187
asg837
(lp2196
g834
ag1461
ag1596
ag1263
asS'appl_957'
p2197
(lp2198
g556
ag1341
ag1444
asg947
(lp2199
g1401
ag998
ag396
ag941
ag894
asg882
(lp2200
g1581
ag1093
ag872
asg277
(lp2201
g427
ag263
ag969
ag1642
ag1328
ag1581
ag1307
ag1452
ag941
asS'appl_1037'
p2202
(lp2203
g1585
asS'appl_1036'
p2204
(lp2205
g100
ag957
asg328
(lp2206
g1409
ag766
ag1444
ag860
ag608
ag792
ag1452
ag316
asS'appl_1030'
p2207
(lp2208
g941
ag1200
ag608
ag1530
ag930
asg176
(lp2209
g849
ag172
ag1139
asg346
(lp2210
g636
ag54
ag817
ag332
asg266
(lp2211
g1472
ag735
ag1295
ag263
asg497
(lp2212
g1257
ag480
ag1509
ag1530
ag1034
ag651
ag834
asg976
(lp2213
g1490
ag1200
ag1272
ag969
ag1430
ag1496
ag1245
asS'appl_1149'
p2214
(lp2215
g154
asg1298
(lp2216
g1537
ag1295
ag1328
ag1430
asS'appl_54'
p2217
(lp2218
g1103
ag19
asg287
(lp2219
g678
ag1596
ag1515
ag280
ag1420
ag1614
asg1427
(lp2220
g1011
ag154
ag1420
asg1370
(lp2221
g1359
ag1093
ag1581
asS'appl_50'
p2222
(lp2223
g1224
asS'appl_51'
p2224
(lp2225
g1420
asg1113
(lp2226
g1103
ag1622
ag998
ag1544
asg752
(lp2227
g1186
ag1224
ag749
ag1452
ag941
asS'appl_1143'
p2228
(lp2229
g54
ag849
asS'appl_1142'
p2230
(lp2231
g427
ag1316
ag530
ag1208
asS'appl_1145'
p2232
(lp2233
g480
ag1379
ag1614
asg1236
(lp2234
g1530
ag1224
ag1452
ag1379
asg363
(lp2235
g978
ag347
ag530
asg916
(lp2236
g1351
ag1186
ag1081
ag1272
ag1245
ag908
asg746
(lp2237
g735
ag249
asg76
(lp2238
g1521
ag54
ag749
ag1252
asg1195
(lp2239
g1186
ag249
ag1614
asg1637
(lp2240
g718
ag187
ag1034
ag1633
ag1614
asS'appl_1440'
p2241
(lp2242
g622
ag582
ag595
ag1257
asg1339
(lp2243
g1208
ag1622
ag1502
ag1328
asg789
(lp2244
g1147
ag1629
ag1379
ag1622
ag781
ag1633
ag941
asS'appl_1443'
p2245
(lp2246
g35
ag187
asS'appl_1448'
p2247
(lp2248
g1307
ag608
ag1081
ag998
ag1430
asg1241
(lp2249
g1237
ag413
ag1139
asg1448
(lp2250
g1472
ag1444
asg400
(lp2251
g1316
ag636
ag396
ag1574
ag718
ag622
ag1279
asg1020
(lp2252
g1034
ag1496
ag1604
ag1011
ag1157
asg699
(lp2253
g1272
ag1175
ag1548
ag692
ag781
ag919
asg1408
(lp2254
g834
ag1401
ag849
ag1629
asg1164
(lp2255
g1157
ag1502
ag1208
ag1525
asg323
(lp2256
g19
ag316
ag1130
ag1581
asg579
(lp2257
g1328
ag572
ag872
asS'appl_1536'
p2258
(lp2259
g636
asg853
(lp2260
g849
asg879
(lp2261
g1633
ag595
ag1093
ag872
ag1224
ag1011
ag1629
ag296
asg956
(lp2262
g480
ag1341
ag941
ag1372
ag884
asS'appl_1284'
p2263
(lp2264
g849
ag978
ag1257
ag872
asg359
(lp2265
g119
ag347
ag978
ag1263
ag1147
ag230
ag1166
asg354
(lp2266
g280
ag998
ag347
ag1548
asg1628
(lp2267
g817
ag1622
ag1295
ag1633
asg743
(lp2268
g1409
ag1437
ag735
ag664
ag1515
ag957
ag1472
ag1642
asS'appl_1280'
p2269
(lp2270
g1481
ag542
ag1574
ag792
ag1490
ag849
ag1139
asS'appl_447'
p2271
(lp2272
g1642
ag230
ag280
ag1574
ag1034
asg933
(lp2273
g1430
ag930
ag3
ag1564
ag1515
asg430
(lp2274
g347
ag651
ag427
ag1139
asg94
(lp2275
g1564
ag79
ag957
ag1530
ag230
asg1016
(lp2276
g595
ag1011
ag1581
asS'appl_443'
p2277
(lp2278
g1372
asg806
(lp2279
g1509
ag1186
ag1444
ag803
asg740
(lp2280
g79
ag1502
ag735
ag872
ag1574
ag1444
ag1496
asg1592
(lp2281
g941
ag1307
ag1622
ag1589
ag172
ag187
asg1442
(lp2282
g1437
ag1279
ag1252
ag316
ag230
asg412
(lp2283
g396
ag1272
ag1200
ag703
ag1257
ag542
ag894
asg395
(lp2284
g378
ag941
ag766
asS'appl_434'
p2285
(lp2286
g1614
ag678
ag1548
ag1351
asS'appl_433'
p2287
(lp2288
g1295
ag919
asg286
(lp2289
g230
ag556
ag1237
ag172
ag280
ag692
ag860
ag1452
ag987
ag817
asS'appl_431'
p2290
(lp2291
g1581
asS'appl_430'
p2292
(lp2293
g803
asg391
(lp2294
g1525
ag210
ag378
ag957
ag1515
asS'appl_722'
p2295
(lp2296
g1307
ag595
asS'appl_721'
p2297
(lp2298
g969
asg603
(lp2299
g1023
ag930
ag978
ag595
ag1116
asg763
(lp2300
g1103
ag556
ag749
ag1589
asg1500
(lp2301
g1359
ag908
ag187
ag1496
asg1283
(lp2302
g396
ag1515
ag1069
ag1279
ag582
ag1509
asS'appl_724'
p2303
(lp2304
g1069
ag1585
ag1093
ag1103
asg16
(lp2305
g1157
ag1263
ag595
ag3
asg613
(lp2306
g1537
ag608
ag1564
ag703
ag79
asg757
(lp2307
g749
ag978
ag347
ag542
ag919
ag1564
ag1452
asg900
(lp2308
g1157
ag894
ag1444
asg807
(lp2309
g803
ag296
ag978
ag378
asg761
(lp2310
g749
ag817
asg1332
(lp2311
g781
ag500
ag1589
ag1604
ag1328
asS'appl_890'
p2312
(lp2313
g941
ag1614
ag1574
ag692
ag1093
asg208
(lp2314
g1245
ag1166
ag187
ag3
asg1506
(lp2315
g530
ag1502
ag463
ag1521
asg1189
(lp2316
g3
ag1186
ag1420
ag1585
ag1081
ag884
ag1200
asg67
(lp2317
g860
ag1490
ag998
ag1393
ag154
ag396
ag54
asS'appl_897'
p2318
(lp2319
g1585
ag1215
asS'appl_896'
p2320
(lp2321
g1430
ag556
asS'appl_547'
p2322
(lp2323
g136
asS'appl_546'
p2324
(lp2325
g849
ag542
ag396
ag1272
ag692
asg68
(lp2326
g1379
ag3
ag957
ag54
ag1166
asg1191
(lp2327
g1295
ag517
ag1186
asg741
(lp2328
g500
ag19
ag1509
ag1295
ag1490
ag1581
ag735
asS'appl_542'
p2329
(lp2330
g1530
ag1011
asS'appl_541'
p2331
(lp2332
g608
ag1116
asg662
(lp2333
g1208
ag1279
ag735
ag651
ag608
asS'appl_549'
p2334
(lp2335
g79
asg195
(lp2336
g187
ag1642
ag542
ag280
asS'appl_1332'
p2337
(lp2338
g987
ag1564
asg702
(lp2339
g1525
ag1175
ag692
ag849
ag1502
ag1585
ag1147
ag172
ag622
ag1401
ag413
asg963
(lp2340
g957
ag1208
ag1622
asg938
(lp2341
g1252
ag1461
ag930
ag1116
ag1502
ag1604
ag1372
ag427
ag1237
asg581
(lp2342
g1257
ag1585
ag572
asg468
(lp2343
g463
ag1328
asg1294
(lp2344
g1328
ag1548
ag1581
ag572
ag1502
ag1289
asg420
(lp2345
g413
ag766
ag1430
ag530
ag100
asg1072
(lp2346
g1622
ag834
ag1069
asS'appl_1339'
p2347
(lp2348
g1604
ag1252
ag517
ag1530
ag1437
ag636
asg700
(lp2349
g692
ag1585
ag1224
asg1183
(lp2350
g54
ag1175
ag3
asg92
(lp2351
g79
ag572
ag1614
ag1103
ag1081
asS'appl_942'
p2352
(lp2353
g463
ag154
ag1307
ag1059
ag803
asS'appl_941'
p2354
(lp2355
g556
ag19
ag1359
ag332
ag817
ag1059
asg1434
(lp2356
g1379
ag1341
ag1430
asg1286
(lp2357
g500
ag1279
asg575
(lp2358
g1245
ag572
ag1585
asS'appl_945'
p2359
(lp2360
g296
asS'appl_944'
p2361
(lp2362
g941
ag1103
ag1420
ag1642
asg592
(lp2363
g1272
ag636
ag651
ag582
ag803
ag1622
asS'appl_1027'
p2364
(lp2365
g781
ag1328
asg351
(lp2366
g1263
ag919
ag347
asg863
(lp2367
g595
ag957
ag572
ag556
ag427
ag860
asS'appl_1022'
p2368
(lp2369
g530
ag1157
ag1059
asS'appl_1023'
p2370
(lp2371
g19
ag1372
ag1555
ag969
ag749
asg41
(lp2372
g1564
ag35
asg1368
(lp2373
g1359
ag1420
asg25
(lp2374
g19
ag987
ag3
ag1215
ag427
ag1252
ag1461
asg1645
(lp2375
g1642
ag1481
asS'appl_222'
p2376
(lp2377
g480
ag718
ag463
asg113
(lp2378
g1059
ag969
ag100
ag894
ag556
ag1401
ag366
asS'appl_996'
p2379
(lp2380
g1585
asS'appl_997'
p2381
(lp2382
g249
ag427
ag1430
ag1393
asS'appl_990'
p2383
(lp2384
g749
ag500
ag1341
ag1564
asg1015
(lp2385
g1011
ag703
ag1509
ag1574
ag1481
ag969
asg1397
(lp2386
g1059
ag1581
ag1341
ag210
ag249
ag1472
ag1393
asS'appl_225'
p2387
(lp2388
g1642
ag1581
ag969
ag1544
ag1548
asg545
(lp2389
g542
ag54
ag1130
ag480
ag1069
ag1237
asg779
(lp2390
g1147
ag766
asS'appl_21'
p2391
(lp2392
g1157
asS'appl_20'
p2393
(lp2394
g187
ag54
asg918
(lp2395
g136
ag1147
ag1245
ag1224
ag908
asS'appl_26'
p2396
(lp2397
g1130
ag1147
ag396
asS'appl_25'
p2398
(lp2399
g463
ag1166
ag718
ag572
asg1376
(lp2400
g1409
ag154
ag1509
ag1186
ag1420
ag1642
ag1372
ag1515
asS'appl_1152'
p2401
(lp2402
g1103
ag1237
ag1130
ag1224
ag678
asg1030
(lp2403
g1263
ag1023
ag1633
ag1525
ag1461
asg616
(lp2404
g703
ag608
ag1147
ag1502
asg799
(lp2405
g1401
ag1272
ag792
ag1544
ag413
ag1081
ag766
asg512
(lp2406
g1237
ag187
ag500
asg364
(lp2407
g1069
ag664
ag316
ag1059
ag941
ag1642
ag347
ag930
ag1139
asg404
(lp2408
g542
ag1081
ag1139
ag396
ag249
asg1641
(lp2409
g1574
ag1633
ag582
asg370
(lp2410
g572
ag817
ag1525
ag366
ag1252
ag781
ag1633
asg177
(lp2411
g446
ag172
ag1444
ag1252
ag1272
asS'appl_616'
p2412
(lp2413
g1289
ag35
ag622
ag1341
asS'appl_347'
p2414
(lp2415
g1633
asg1122
(lp2416
g1272
ag1430
ag1116
ag860
ag463
asS'appl_1549'
p2417
(lp2418
sS'appl_1548'
p2419
(lp2420
g608
ag781
ag1093
ag119
ag1629
asS'appl_1545'
p2421
(lp2422
g1245
ag172
asg305
(lp2423
g1252
ag366
ag296
asg586
(lp2424
g582
ag1515
ag1200
asS'appl_1546'
p2425
(lp2426
g1166
ag1289
asS'appl_1541'
p2427
(lp2428
g1157
asg587
(lp2429
g872
ag1537
ag582
ag1555
asg672
(lp2430
g908
ag1393
ag998
ag664
asg523
(lp2431
g463
ag834
ag517
ag998
asS'appl_57'
p2432
(lp2433
g1604
ag884
ag542
ag930
ag1614
ag3
ag872
asg410
(lp2434
g210
ag1103
ag735
ag969
ag396
ag1175
asS'appl_1498'
p2435
(lp2436
g1069
ag651
ag1372
asS'appl_1497'
p2437
(lp2438
g1200
ag1023
ag1069
ag1544
ag1548
asg190
(lp2439
g792
ag1604
ag608
ag187
ag280
ag1633
ag1372
ag1622
ag1328
ag332
ag1437
asg527
(lp2440
g1307
ag1116
ag692
ag517
asg386
(lp2441
g1622
ag1461
ag378
asg539
(lp2442
g530
ag692
ag1237
ag1034
ag849
asg973
(lp2443
g1461
ag1046
ag969
ag1490
ag1525
asg809
(lp2444
g803
ag703
ag894
ag718
ag1157
ag530
ag969
asg1185
(lp2445
g1295
ag1316
ag1622
ag1379
ag1359
ag1461
ag1175
ag1530
asg1287
(lp2446
g930
ag1351
ag1279
ag480
asg216
(lp2447
g1103
ag872
ag1555
ag766
ag210
ag1585
asg827
(lp2448
g1430
ag1175
ag1034
ag1589
ag817
ag1289
ag1147
asg117
(lp2449
g1200
ag100
asg878
(lp2450
g1515
ag1548
ag1034
ag872
asg1640
(lp2451
g1633
ag1437
asg1365
(lp2452
g1481
ag413
ag1614
ag1515
ag1139
ag1359
asg950
(lp2453
g735
ag941
asg1129
(lp2454
g136
ag1116
ag1481
asg1383
(lp2455
g1379
asg859
(lp2456
g1116
ag849
ag1393
ag1081
ag1564
asg166
(lp2457
g1237
ag1023
ag1564
ag154
asg762
(lp2458
g480
ag749
asS'appl_717'
p2459
(lp2460
g1263
ag1103
ag957
ag1208
ag35
ag296
asg164
(lp2461
g154
ag19
ag263
ag1295
asg1092
(lp2462
g1525
ag1093
ag1081
ag1116
ag1544
asg179
(lp2463
g957
ag1642
ag556
ag1444
ag172
asg235
(lp2464
g1574
ag792
ag1139
ag230
ag542
ag427
ag249
asg304
(lp2465
g1509
ag1252
ag296
asS'appl_711'
p2466
(lp2467
g1175
ag941
ag1490
ag1252
asS'appl_718'
p2468
(lp2469
g1130
ag19
asg816
(lp2470
g803
asS'appl_392'
p2471
(lp2472
sS'appl_393'
p2473
(lp2474
g884
ag154
ag1521
ag608
ag1401
ag1372
ag1272
asg1172
(lp2475
g1103
ag1393
ag79
ag1166
ag1341
ag1252
asS'appl_391'
p2476
(lp2477
g860
ag919
asg1578
(lp2478
g1409
ag1574
asS'appl_397'
p2479
(lp2480
g703
ag849
ag35
asS'appl_394'
p2481
(lp2482
g1295
ag517
ag1372
ag446
asS'appl_395'
p2483
(lp2484
g1633
ag347
ag1379
asS'appl_398'
p2485
(lp2486
g35
ag1359
ag1515
asg487
(lp2487
g480
ag1401
ag542
asg1214
(lp2488
g1379
ag1208
ag1059
asg1065
(lp2489
g1307
ag1147
ag1502
ag1059
ag19
ag1103
asg1560
(lp2490
g1589
ag1289
ag1263
ag1046
ag1555
ag703
asg808
(lp2491
g803
ag1614
ag366
asg253
(lp2492
g396
ag249
ag572
ag1341
ag1186
asS'appl_1236'
p2493
(lp2494
sg1336
(lp2495
g1548
ag957
ag1328
ag1295
ag969
asg968
(lp2496
g500
ag957
asg607
(lp2497
g1509
ag1328
ag595
asg857
(lp2498
g1237
ag35
ag1537
ag849
asg715
(lp2499
g703
ag1472
ag446
ag1139
ag978
ag1437
asg178
(lp2500
g894
ag172
asg390
(lp2501
g884
ag1589
ag378
ag1351
ag500
ag1379
asS'appl_577'
p2502
(lp2503
g978
ag608
asg787
(lp2504
g781
ag703
ag998
ag1481
ag582
asg772
(lp2505
g1430
ag1237
ag766
ag1521
ag1537
asg560
(lp2506
g766
ag664
ag556
asg357
(lp2507
g749
ag884
ag396
ag1200
ag1157
ag1629
ag347
asg59
(lp2508
g54
ag1629
ag1252
ag1023
asg626
(lp2509
g1328
ag1295
ag249
ag622
asS'appl_372'
p2510
(lp2511
sg402
(lp2512
g1633
ag396
ag1629
ag872
ag703
asg1003
(lp2513
g1166
ag1186
ag1596
ag1490
ag517
ag998
ag1437
ag500
asg1357
(lp2514
g1351
asS'appl_376'
p2515
(lp2516
g366
ag154
asg562
(lp2517
g280
ag100
ag556
ag1341
ag678
ag636
asg294
(lp2518
g1642
ag280
ag987
asg756
(lp2519
g1521
ag542
ag749
ag930
ag446
ag1208
asg707
(lp2520
g1452
ag703
ag296
ag1046
asg116
(lp2521
g969
ag792
ag1537
ag100
ag1252
ag1420
asg797
(lp2522
g792
ag1537
ag1574
ag1011
ag54
asg838
(lp2523
g1604
ag1401
ag1295
ag517
ag834
asg479
(lp2524
g1263
ag332
ag1252
ag595
ag1341
ag463
asg775
(lp2525
g347
ag766
ag413
ag1585
ag446
asS'appl_1304'
p2526
(lp2527
g1481
ag1263
ag1589
asg1312
(lp2528
g718
ag1307
ag1215
asg1162
(lp2529
g735
ag930
ag556
ag1157
ag1502
ag1596
asS'appl_1301'
p2530
(lp2531
g1544
ag1430
ag1208
ag1372
ag1147
ag1295
ag1011
ag1034
asg180
(lp2532
g1521
ag1401
ag651
ag172
asg82
(lp2533
g54
ag941
ag79
asg403
(lp2534
g1139
ag1263
ag396
ag427
asS'appl_1309'
p2535
(lp2536
g332
ag1328
ag1589
ag884
asg889
(lp2537
g1130
ag1589
ag1272
ag446
ag1011
ag1289
ag1252
ag136
ag884
asS'appl_145'
p2538
(lp2539
g187
ag396
asg158
(lp2540
g154
asg1196
(lp2541
g1555
ag1437
ag860
ag1272
ag1186
asg141
(lp2542
g1103
ag446
ag366
ag136
ag978
ag1614
ag622
asg1009
(lp2543
g1186
ag1215
ag998
asg840
(lp2544
g1351
ag817
ag749
ag834
asg676
(lp2545
g664
ag1581
ag1574
ag930
ag1328
ag1166
asg1057
(lp2546
g1622
ag1046
ag651
ag1530
asg491
(lp2547
g1444
ag480
ag595
ag530
asS'appl_970'
p2548
(lp2549
g413
asg821
(lp2550
g1328
ag817
asg1337
(lp2551
g1279
ag930
ag366
ag678
ag1328
asS'appl_1278'
p2552
(lp2553
g1252
ag1420
ag1279
asS'appl_1019'
p2554
(lp2555
g1574
ag1444
ag1614
ag378
ag1555
asS'appl_1018'
p2556
(lp2557
g664
ag1521
ag500
ag1604
asS'appl_1013'
p2558
(lp2559
g1642
ag817
ag1581
ag1509
ag1093
asS'appl_1012'
p2560
(lp2561
g1521
asg495
(lp2562
g1430
ag480
asg880
(lp2563
g1208
ag100
ag872
ag119
asg1620
(lp2564
g500
ag703
ag1614
asg1231
(lp2565
g413
ag582
ag1359
ag781
ag1544
ag1224
ag280
ag1130
asg95
(lp2566
g749
ag636
ag1544
ag79
asg149
(lp2567
g1614
ag427
ag136
ag263
asg1190
(lp2568
g1359
ag296
ag1186
asg1327
(lp2569
g1316
ag542
ag347
asg1398
(lp2570
g480
ag1393
ag792
ag1515
asg1018
(lp2571
g1011
asg399
(lp2572
g396
ag749
ag1604
ag1252
ag19
asg43
(lp2573
g1548
ag35
ag1472
ag834
ag919
asg812
(lp2574
g803
ag1245
asg796
(lp2575
g517
ag396
ag792
ag1642
ag1496
asg995
(lp2576
g1186
ag1272
ag1633
ag987
ag1295
ag1502
ag1629
asg1429
(lp2577
g413
ag1622
ag1257
ag1263
ag987
ag100
ag1452
ag542
ag1629
ag1420
asg913
(lp2578
g1215
ag542
ag908
ag1530
ag1515
ag651
asg488
(lp2579
g480
ag978
ag1175
ag1372
ag834
asg466
(lp2580
g463
ag1272
ag1147
ag572
asg220
(lp2581
g1224
ag817
ag1257
ag1401
ag1537
ag210
ag556
ag718
ag636
ag1289
ag100
asS'appl_1161'
p2582
(lp2583
g1461
ag1564
asg1173
(lp2584
g1046
ag849
ag366
ag1420
ag1166
asg842
(lp2585
g1059
ag1208
ag834
ag636
asg1150
(lp2586
g1496
ag1147
ag664
ag463
ag1139
asg907
(lp2587
g1279
ag894
ag1502
ag517
ag1548
ag941
asg257
(lp2588
g781
ag249
ag100
ag1437
ag1069
asS'appl_1556'
p2589
(lp2590
g542
ag463
ag1525
ag1393
asg1425
(lp2591
g542
ag1420
ag1629
ag316
ag413
ag1157
asg1115
(lp2592
g1103
ag1574
asg1346
(lp2593
g1359
ag1633
ag860
ag1341
asg986
(lp2594
g1359
ag636
ag978
asg604
(lp2595
g413
ag54
ag595
ag1046
ag210
asg674
(lp2596
g1444
ag366
ag664
asS'appl_1551'
p2597
(lp2598
g1515
ag1081
ag1252
ag1069
asg1152
(lp2599
g1289
ag1147
ag1224
ag1011
ag172
asS'appl_1480'
p2600
(lp2601
g1581
ag1537
ag1481
ag1379
ag3
asg1284
(lp2602
g1279
ag3
ag1186
ag1263
ag1208
ag1437
asg1534
(lp2603
g1023
ag1530
asg1230
(lp2604
g1224
ag1437
asg1123
(lp2605
g1116
ag572
ag1279
ag1537
asg1569
(lp2606
g1224
ag1564
asg513
(lp2607
g500
asg1133
(lp2608
g463
ag1130
asg1161
(lp2609
g1157
ag608
asg470
(lp2610
g187
ag1328
ag849
ag463
asg433
(lp2611
g1548
ag718
ag427
asS'appl_414'
p2612
(lp2613
g1295
ag500
asg1121
(lp2614
g1629
ag1116
ag636
ag1525
ag1509
asg133
(lp2615
g249
ag1359
ag1200
ag1316
ag119
ag332
asg161
(lp2616
g1472
ag154
ag1166
ag1521
asg1562
(lp2617
g280
ag1555
ag1307
ag1420
ag1604
ag1295
asS'appl_413'
p2618
(lp2619
g1328
ag154
ag582
asg1520
(lp2620
g1581
ag894
ag1515
asg600
(lp2621
g1069
ag1215
ag463
ag595
asg1223
(lp2622
g1509
ag230
ag1224
ag1215
asS'appl_419'
p2623
(lp2624
g1420
asg629
(lp2625
g1444
ag1263
ag1490
ag792
ag463
ag622
ag1581
ag136
asg951
(lp2626
g100
ag1341
ag1200
ag1589
ag941
asS'appl_708'
p2627
(lp2628
sg1340
(lp2629
g1401
ag1614
ag1023
ag1328
ag1629
ag1589
asg1508
(lp2630
g1502
asS'appl_703'
p2631
(lp2632
g572
ag1295
ag766
ag1147
ag1502
asg1078
(lp2633
g1208
ag1103
ag1069
asg1043
(lp2634
g19
ag998
ag1034
ag1515
asS'appl_704'
p2635
(lp2636
g1200
ag1328
asS'appl_707'
p2637
(lp2638
g664
asS'appl_706'
p2639
(lp2640
g3
ag1279
ag930
asg450
(lp2641
S'Orlando Health Program'
p2642
aS'Boston University Medical Center Program'
p2643
aS'Brookwood Baptist Health Program'
p2644
asg948
(lp2645
g978
ag1252
ag1257
ag1633
ag941
asg843
(lp2646
g1341
ag154
ag1409
ag1525
ag834
asg649
(lp2647
g860
ag556
ag1604
ag1515
ag332
ag636
ag1279
asg88
(lp2648
g978
ag79
ag1069
ag396
ag530
asg382
(lp2649
g1166
ag378
ag1351
ag572
asg103
(lp2650
g941
ag987
ag1379
ag100
ag884
ag622
ag332
ag1490
asg272
(lp2651
g1237
ag316
ag263
ag1420
ag378
ag692
asS'appl_382'
p2652
(lp2653
g1328
asg392
(lp2654
g378
ag1490
ag622
ag572
asg145
(lp2655
g1093
ag941
ag136
ag572
ag1116
asg132
(lp2656
g316
ag1295
ag119
ag703
ag1224
asg330
(lp2657
g1130
ag316
ag572
ag1548
asg1112
(lp2658
g1103
ag1295
ag1130
asg1085
(lp2659
g1081
ag1515
ag172
ag1420
ag1307
ag1200
asS'appl_1220'
p2660
(lp2661
g427
asg790
(lp2662
g1093
ag781
ag1642
ag1444
asS'appl_1222'
p2663
(lp2664
g1537
ag884
asg1285
(lp2665
g1279
ag1502
asg1014
(lp2666
g1629
ag1093
ag1046
ag1011
ag1215
ag1544
asg270
(lp2667
g263
ag987
asg1485
(lp2668
g1316
ag1372
ag582
ag1279
ag1481
asg1229
(lp2669
g1307
ag894
ag230
ag119
ag1224
ag1430
asg1347
(lp2670
g1379
ag1341
asg1055
(lp2671
g766
ag969
ag1525
ag849
ag1046
asS'appl_563'
p2672
(lp2673
g664
ag1157
ag530
ag1069
asg441
(lp2674
g1633
ag1472
ag1515
ag427
ag1130
asg1601
(lp2675
g1081
ag1272
ag1093
ag749
ag1596
asg1119
(lp2676
g1046
ag1581
ag1544
ag1116
ag1555
ag1341
ag1103
ag1437
asg243
(lp2677
g978
ag1452
ag263
ag230
ag834
ag1069
ag1046
asg1270
(lp2678
g1437
ag1328
ag1379
ag1263
asg1045
(lp2679
g1166
ag1034
ag316
ag1359
ag872
asg934
(lp2680
g930
ag884
ag119
ag1515
ag1629
asg961
(lp2681
g54
ag908
ag595
ag1359
ag1496
ag957
asg1143
(lp2682
g1622
ag210
ag664
ag1139
asg18
(lp2683
g803
ag1521
ag1548
ag332
ag396
ag572
ag54
ag1200
ag1574
ag3
asg1356
(lp2684
g480
ag136
ag894
ag500
ag1351
asg716
(lp2685
g1316
ag1351
ag703
ag978
ag1252
ag872
ag1472
ag1200
ag1555
asg356
(lp2686
g230
ag347
ag1642
ag908
ag703
asg1250
(lp2687
g1245
ag608
asS'appl_1311'
p2688
(lp2689
g500
ag1081
ag1604
ag1574
asg1364
(lp2690
g1359
ag919
ag480
asg34
(lp2691
g1351
ag249
ag316
ag19
ag608
asg1174
(lp2692
g1614
ag1437
ag1245
ag1166
asg374
(lp2693
g230
ag1215
ag849
ag366
asS'appl_1316'
p2694
(lp2695
g781
ag1157
asg168
(lp2696
g941
ag446
ag1215
ag1263
ag154
ag718
ag1490
ag100
ag1166
asg1621
(lp2697
g556
ag1614
ag1289
ag1544
asg828
(lp2698
g817
ag427
asg504
(lp2699
g1585
ag542
ag500
ag749
asS'appl_962'
p2700
(lp2701
g378
ag1245
asg663
(lp2702
g978
ag957
ag1515
ag651
asS'appl_964'
p2703
(lp2704
g1614
ag1481
ag1444
ag781
ag446
asg1603
(lp2705
g517
ag187
ag249
ag1596
ag1372
ag1157
ag1116
ag1069
asg1478
(lp2706
g872
ag1472
asg1588
(lp2707
g735
ag1585
asg516
(lp2708
g1461
ag1215
ag500
ag1544
ag582
ag1614
asg1058
(lp2709
g1059
ag1046
ag1589
ag1614
ag817
asS'appl_1009'
p2710
(lp2711
g463
ag608
ag749
asg1204
(lp2712
g1147
ag280
ag1200
asg537
(lp2713
g100
ag1237
ag530
ag803
ag1629
ag622
asg148
(lp2714
g1103
ag136
ag1200
ag1548
ag651
ag792
asg99
(lp2715
g1081
ag79
ag941
ag636
ag280
ag1351
asg458
(lp2716
g1011
ag1596
ag446
ag316
asg742
(lp2717
g1224
ag735
ag1521
ag703
asg601
(lp2718
g582
ag1555
ag1157
ag1544
ag595
asS'appl_1003'
p2719
(lp2720
g572
ag136
ag941
asg1455
(lp2721
g894
ag1574
ag735
ag1515
ag1452
asg865
(lp2722
g1509
ag1341
ag1525
ag860
ag1130
asg814
(lp2723
g1622
ag803
ag187
asg1471
(lp2724
g1461
ag1444
asg639
(lp2725
g1116
ag1614
ag636
asg1535
(lp2726
g1175
ag1530
asg183
(lp2727
g1633
ag172
ag1359
ag978
ag378
asg617
(lp2728
g969
ag296
ag1548
ag651
ag608
ag703
ag480
asS'appl_1178'
p2729
(lp2730
g296
ag987
ag1509
asS'appl_1179'
p2731
(lp2732
g530
asg64
(lp2733
g1157
ag296
ag54
ag1069
ag210
ag1496
ag1252
ag651
asg771
(lp2734
g1023
ag1481
ag1215
ag766
asS'appl_9'
p2735
(lp2736
g1409
ag1272
ag1642
ag1289
asg887
(lp2737
g1574
ag427
ag884
ag1034
ag608
asg1369
(lp2738
g1359
ag1581
ag1379
asg1218
(lp2739
g1081
ag1515
ag1215
ag154
asg254
(lp2740
g500
ag1341
ag463
ag978
ag941
ag249
asg247
(lp2741
g542
ag1633
ag651
ag230
ag1544
ag572
ag957
ag1186
asg915
(lp2742
g803
ag1420
ag1307
ag908
ag230
ag1093
asg929
(lp2743
g1224
ag1548
ag1452
ag446
ag919
ag678
ag1279
asg22
(lp2744
g19
ag1642
ag35
ag1351
asg478
(lp2745
g35
ag1642
ag1175
ag463
asg897
(lp2746
g894
ag1461
asg748
(lp2747
g735
ag136
ag781
asg1507
(lp2748
g3
ag1502
ag834
ag54
ag1642
asS'appl_1562'
p2749
(lp2750
g1157
ag1461
ag1224
asg387
(lp2751
g608
ag872
ag1059
ag1521
ag1081
ag378
ag1420
asg1579
(lp2752
g1574
ag1544
ag1401
ag969
ag692
ag1139
ag1393
ag860
asg546
(lp2753
g542
ag987
ag1351
ag1341
ag1289
ag1525
asg893
(lp2754
g987
ag1081
ag1208
ag1555
ag884
asS'appl_1565'
p2755
(lp2756
g969
asg417
(lp2757
g803
ag1393
ag1215
ag781
ag1401
ag413
ag908
asS'appl_1569'
p2758
(lp2759
g54
ag1272
ag1604
ag1034
ag35
asg598
(lp2760
g595
ag1490
ag1461
ag1139
ag582
ag1481
asg1184
(lp2761
g1157
ag1175
ag1224
ag1530
ag210
asg724
(lp2762
g1544
ag987
ag908
ag718
ag817
asS'appl_174'
p2763
(lp2764
g781
ag1237
ag1555
ag894
ag1059
ag766
ag1581
asg984
(lp2765
g1452
ag1215
ag978
ag849
asg453
(lp2766
g957
ag1215
ag446
ag622
ag987
ag930
asg269
(lp2767
g969
ag1564
ag378
ag347
ag263
ag530
asg496
(lp2768
g1130
ag1521
ag378
ag1116
ag517
ag480
ag1430
ag766
asg822
(lp2769
g1200
ag316
ag608
ag803
ag530
ag817
asg1406
(lp2770
g1521
ag1574
ag1401
asg455
(lp2771
g872
ag446
ag1393
asS'appl_1371'
p2772
(lp2773
g500
asg147
(lp2774
g692
ag622
ag1272
ag136
ag664
ag332
ag1444
asg533
(lp2775
g280
ag1351
ag530
ag1509
ag1430
asg839
(lp2776
g834
ag530
asg1400
(lp2777
g1393
ag154
ag1496
ag1059
ag872
asS'appl_1583'
p2778
(lp2779
g187
asg1293
(lp2780
g1289
ag834
ag1537
asg1114
(lp2781
g1642
ag781
ag1103
ag1490
ag1589
ag622
ag54
asS'appl_1584'
p2782
(lp2783
g332
asS'appl_1587'
p2784
(lp2785
g172
asg40
(lp2786
g35
ag119
ag154
ag1509
asS'appl_778'
p2787
(lp2788
g930
ag1295
ag1252
ag834
ag1444
asg258
(lp2789
g249
ag1034
ag1444
ag187
ag1046
asS'appl_774'
p2790
(lp2791
g930
ag1351
ag1116
ag413
ag1059
ag1574
asg1182
(lp2792
g1175
ag530
ag803
asg1228
(lp2793
g1461
ag1224
ag1103
ag413
ag1289
asg1494
(lp2794
g1490
ag347
ag1430
asg829
(lp2795
g817
ag1257
asS'appl_771'
p2796
(lp2797
g3
ag817
asg1367
(lp2798
g1359
ag792
ag530
ag249
ag296
ag1401
ag664
asg1519
(lp2799
g500
ag1515
ag79
ag1564
asS'appl_590'
p2800
(lp2801
g366
ag969
ag1307
asg431
(lp2802
g1215
ag427
ag1515
asg63
(lp2803
g54
ag1393
asg695
(lp2804
g884
ag692
ag1525
asS'appl_594'
p2805
(lp2806
g608
ag119
ag1401
asg1101
(lp2807
g1525
ag1093
ag894
ag136
ag396
ag1437
asS'appl_596'
p2808
(lp2809
sg13
(lp2810
g1208
ag622
ag849
ag3
asg977
(lp2811
g187
ag969
ag766
ag1023
ag263
asS'appl_599'
p2812
(lp2813
g1564
ag1245
asS'appl_600'
p2814
(lp2815
g1200
ag210
ag1496
ag1245
asg1349
(lp2816
g1200
ag1341
ag556
asg981
(lp2817
g978
ag608
ag735
ag1175
asg381
(lp2818
g378
ag703
ag1452
asg905
(lp2819
g1200
ag894
ag1316
ag1379
ag1307
ag1401
asg238
(lp2820
g463
ag1461
ag792
ag1596
ag1430
ag230
asg456
(lp2821
g446
ag781
ag1614
ag1444
ag1515
asg1571
(lp2822
g1555
ag930
ag1622
ag1564
ag651
asg86
(lp2823
g347
ag872
ag998
ag79
asg301
(lp2824
g296
ag884
ag1279
ag608
asg1303
(lp2825
g1295
ag987
ag749
asg1304
(lp2826
g1555
ag1509
ag1530
ag1502
ag1295
ag1081
ag1629
asS'appl_352'
p2827
(lp2828
sg1536
(lp2829
g941
ag987
ag136
ag1530
ag1351
asg182
(lp2830
g172
ag249
ag542
ag582
asS'appl_351'
p2831
(lp2832
g500
ag1157
ag1509
ag463
asS'appl_288'
p2833
(lp2834
g378
ag1585
asg229
(lp2835
g210
ag378
ag1069
ag998
ag187
ag608
ag781
asg1470
(lp2836
g1585
ag664
ag1461
asg553
(lp2837
g1544
ag834
ag1081
ag919
ag1139
ag1452
ag119
ag542
ag1548
ag3
asg1460
(lp2838
g1472
ag1515
ag1452
ag1023
asS'appl_287'
p2839
(lp2840
g1081
ag1279
ag296
asg1178
(lp2841
g1200
ag79
ag1581
ag1175
asg50
(lp2842
g1642
ag978
ag1537
ag35
ag1046
ag413
ag1604
ag1521
asg713
(lp2843
g834
ag703
ag1200
ag1046
ag1548
asS'appl_283'
p2844
(lp2845
sg78
(lp2846
g54
ag1186
ag1521
ag803
ag987
asS'appl_1368'
p2847
(lp2848
g1200
ag1186
ag1372
ag1502
asS'appl_1365'
p2849
(lp2850
g1544
ag1521
asS'appl_1364'
p2851
(lp2852
g1341
ag1502
ag1472
ag636
ag1444
ag1200
asS'appl_1367'
p2853
(lp2854
g556
asg669
(lp2855
g969
ag1401
ag735
ag1420
ag1351
ag792
ag664
ag100
asg171
(lp2856
g154
ag1472
ag1175
ag1059
ag930
asg1607
(lp2857
g622
ag1186
ag1604
asg725
(lp2858
g1585
ag718
ag1521
ag582
asg223
(lp2859
g1279
ag542
ag210
ag556
asg1417
(lp2860
g230
ag1409
ag894
ag1393
ag1245
asg585
(lp2861
g1023
ag582
ag957
ag969
ag781
asg342
(lp2862
g766
ag1614
ag749
ag332
ag249
asg1107
(lp2863
g1103
ag1289
ag957
ag1157
ag54
asg1075
(lp2864
g1069
ag154
ag692
asg1220
(lp2865
g1537
ag1481
ag1215
ag1642
ag1515
ag280
asS'appl_912'
p2866
(lp2867
g1444
ag1263
ag1279
ag1224
ag1245
ag1509
asg925
(lp2868
g919
ag119
asg320
(lp2869
g316
ag1316
ag1351
asg760
(lp2870
g1224
ag1490
ag749
asg1240
(lp2871
g1130
ag792
ag1237
asg1244
(lp2872
g1200
ag1237
ag1472
ag998
asg45
(lp2873
g908
ag1237
ag35
ag1069
ag263
asg732
(lp2874
g1461
ag366
ag718
asg946
(lp2875
g849
ag1461
ag941
ag366
asg791
(lp2876
g1379
ag781
ag1574
asg1004
(lp2877
g664
ag998
ag1245
ag608
asg71
(lp2878
g1166
ag998
ag79
ag54
ag1279
asg1572
(lp2879
g446
ag1564
ag1472
ag1081
ag1289
ag1307
ag636
asg1199
(lp2880
g1359
ag19
ag1444
ag998
ag1186
ag1585
ag1245
asg1227
(lp2881
g1224
ag718
asS'appl_849'
p2882
(lp2883
g1279
asg9
(lp2884
g735
ag803
ag3
ag1521
ag978
ag1257
ag517
ag817
asg711
(lp2885
g884
ag664
ag1263
ag703
asg1154
(lp2886
g1139
ag3
ag1521
ag35
ag1452
ag1147
asg1396
(lp2887
g1393
ag894
ag1521
ag792
ag664
ag766
ag1409
asS'appl_1104'
p2888
(lp2889
g636
ag1328
ag396
ag1481
ag1581
asg89
(lp2890
g1502
ag749
ag1289
ag834
ag1420
ag1574
ag79
ag1544
ag1295
asg17
(lp2891
g582
ag595
ag230
ag1481
ag413
ag3
asS'appl_1101'
p2892
(lp2893
g636
ag894
asg1344
(lp2894
g1629
ag1341
ag296
ag1530
ag781
asS'appl_1103'
p2895
(lp2896
g1581
ag1461
ag884
ag1116
ag1642
asg134
(lp2897
g119
ag500
asg903
(lp2898
g1515
ag1629
ag1263
ag894
ag1596
ag1307
ag1341
ag427
asg1388
(lp2899
g1614
ag1379
ag1589
asS'appl_10'
p2900
(lp2901
g1544
ag703
ag1574
asg1577
(lp2902
g1139
ag1200
ag1574
asg475
(lp2903
g463
ag1444
ag517
asS'appl_17'
p2904
(lp2905
g919
ag1564
ag1548
asS'appl_14'
p2906
(lp2907
g1614
ag1175
ag651
asg547
(lp2908
g957
ag1257
ag542
ag1530
ag834
asg486
(lp2909
g1585
ag1614
ag718
ag480
ag930
asg845
(lp2910
g100
ag1502
ag834
asg644
(lp2911
g1585
ag636
asg198
(lp2912
g1341
ag1093
ag1272
ag187
ag678
ag1589
ag1103
asS'appl_1576'
p2913
(lp2914
g1604
ag1420
asg33
(lp2915
g1166
ag1011
ag1307
ag1200
ag19
asS'appl_1570'
p2916
(lp2917
g1614
asg241
(lp2918
g908
ag872
ag230
ag1224
ag1496
asg568
(lp2919
g556
ag1034
asg571
(lp2920
g1502
ag1130
ag1116
ag556
ag1200
ag908
ag969
asg343
(lp2921
g280
ag332
ag366
ag1564
ag622
asg23
(lp2922
g19
ag263
ag1379
ag735
asg621
(lp2923
g1622
ag608
ag1200
ag1555
ag678
ag1316
ag766
ag1401
ag378
ag296
ag998
asS'appl_1599'
p2924
(lp2925
sg690
(lp2926
g678
ag119
ag396
ag210
ag1023
ag1295
asg1486
(lp2927
g480
ag1481
ag735
asg615
(lp2928
g608
ag1525
ag664
asg852
(lp2929
g987
ag1372
ag849
ag572
ag54
ag1437
ag1139
asg593
(lp2930
g582
ag3
ag1351
ag735
ag1544
asg738
(lp2931
g1147
ag480
ag860
ag735
ag154
ag1537
asg1415
(lp2932
g1279
ag1409
asg246
(lp2933
g834
ag230
asg892
(lp2934
g884
ag249
ag735
ag919
ag1614
ag136
ag1081
ag849
ag908
asS'appl_768'
p2935
(lp2936
sg1477
(lp2937
g1372
ag1472
ag1252
ag894
asg292
(lp2938
g54
ag678
ag280
ag1316
asS'appl_765'
p2939
(lp2940
g3
ag396
ag1521
ag1245
ag834
ag1409
asS'appl_764'
p2941
(lp2942
g622
asS'appl_763'
p2943
(lp2944
g834
ag396
ag480
asg1170
(lp2945
g35
ag1166
ag1245
asg224
(lp2946
g1509
ag500
ag1430
ag210
asS'appl_760'
p2947
(lp2948
g249
ag651
ag1596
asg744
(lp2949
g803
ag735
ag969
ag1093
ag35
ag1521
asS'appl_169'
p2950
(lp2951
g1633
ag136
asg375
(lp2952
g1034
ag1157
ag366
ag781
ag556
ag1544
ag332
asg510
(lp2953
g1289
ag530
ag987
ag1059
ag500
ag1200
asg1458
(lp2954
g1166
ag1452
ag651
asS'appl_163'
p2955
(lp2956
g1252
ag803
ag987
asg1137
(lp2957
g1130
ag1289
ag1548
ag1147
ag608
ag1034
asg536
(lp2958
g1147
ag1166
ag908
ag530
ag692
asg1180
(lp2959
g1629
ag1544
ag1175
asg1345
(lp2960
g1409
ag378
ag803
ag1295
ag35
ag1341
asg996
(lp2961
g79
ag987
ag1564
ag378
ag1272
ag1633
ag781
ag1237
asg940
(lp2962
g930
ag1316
ag572
ag1372
asS'appl_582'
p2963
(lp2964
g1633
ag480
ag136
ag957
ag1139
ag817
ag1461
asg982
(lp2965
g1444
ag427
ag978
ag1525
asg112
(lp2966
g908
ag100
ag517
ag1272
ag969
asS'appl_587'
p2967
(lp2968
g1130
ag930
ag119
ag263
ag1093
ag860
asg627
(lp2969
g1130
ag1629
ag622
ag413
ag1081
asg1378
(lp2970
g1295
ag957
ag1372
ag1237
asg222
(lp2971
g1359
ag817
ag378
ag210
ag1502
ag1081
asg1416
(lp2972
g582
ag1409
ag930
ag413
ag1379
ag622
ag1461
asg1475
(lp2973
g1393
ag636
ag1472
ag1515
asg1466
(lp2974
g1279
ag1444
ag572
ag1461
ag1530
ag1379
ag1257
asS'appl_340'
p2975
(lp2976
g636
ag1215
ag1596
ag987
asg131
(lp2977
g119
ag1393
ag595
ag1629
ag1525
asS'appl_610'
p2978
(lp2979
g1147
ag1629
ag1295
ag427
asg1088
(lp2980
g651
ag1430
ag792
ag1081
ag366
ag1490
ag1069
ag803
asg648
(lp2981
g172
ag249
ag636
ag1069
ag1496
ag595
asg1051
(lp2982
g919
ag1379
ag1496
ag636
ag1046
ag803
asg201
(lp2983
g187
ag296
ag446
asg276
(lp2984
g172
ag263
asg1222
(lp2985
g1215
ag1437
ag446
asg140
(lp2986
g366
ag718
ag136
ag1081
ag1452
asg422
(lp2987
g1444
ag79
ag230
ag622
ag413
ag987
ag1496
ag703
asg1120
(lp2988
g1208
ag427
ag1289
ag636
ag1116
asg985
(lp2989
g678
ag978
ag781
asg888
(lp2990
g766
ag1147
ag884
ag1574
asg1480
(lp2991
g1472
ag572
asS'appl_296'
p2992
(lp2993
g1437
ag894
ag595
asg802
(lp2994
g678
ag894
ag1139
ag1430
ag792
ag172
ag1481
ag1069
asg1449
(lp2995
g1444
ag396
ag517
asg437
(lp2996
g1521
ag1444
ag1166
ag427
ag263
ag1622
ag480
ag1224
asg1321
(lp2997
g1372
ag1316
ag1401
asg271
(lp2998
g263
ag1200
ag1521
ag230
ag1175
ag636
ag1252
asg51
(lp2999
g987
ag1481
ag332
ag803
ag463
ag636
ag1537
ag969
ag35
ag136
asg485
(lp3000
g1530
ag1139
ag849
ag608
ag3
ag1166
ag35
ag1215
ag1393
ag347
ag480
asg1179
(lp3001
g1490
ag347
ag1564
ag622
ag1175
ag1011
ag1200
asg714
(lp3002
g1263
ag703
ag172
asS'appl_1376'
p3003
(lp3004
g1023
ag834
asS'appl_640'
p3005
(lp3006
sg110
(lp3007
g100
ag1279
ag1069
ag1139
asS'appl_1375'
p3008
(lp3009
g1023
ag1046
asg419
(lp3010
g1289
ag1069
ag413
ag1093
asg411
(lp3011
g396
ag1379
ag1481
ag1307
ag1515
ag1175
ag1245
ag530
asg454
(lp3012
g1420
ag1147
ag446
ag413
asg1282
(lp3013
g1502
ag1409
ag1237
ag894
ag530
ag998
ag1279
asg279
(lp3014
g1316
ag263
ag1444
ag1093
asS'appl_643'
p3015
(lp3016
g1011
ag446
asS'appl_907'
p3017
(lp3018
g1585
ag1437
ag1633
asS'appl_906'
p3019
(lp3020
g1237
asg559
(lp3021
g998
ag1430
ag556
ag1502
asg146
(lp3022
g136
ag1420
ag884
ag1263
asS'appl_903'
p3023
(lp3024
g154
ag595
asg881
(lp3025
g998
ag1444
ag872
ag1263
asg310
(lp3026
g792
ag187
ag1420
ag1589
ag296
ag1393
ag556
ag1157
asg62
(lp3027
g54
ag1116
ag1596
asg109
(lp3028
g817
ag1548
ag100
asg405
(lp3029
g427
ag413
ag396
asS'appl_839'
p3030
(lp3031
g1372
ag849
ag1279
ag919
ag703
asg1276
(lp3032
g1537
ag1257
ag1224
ag1351
ag1574
ag1509
ag1272
asg1407
(lp3033
g678
ag1472
ag1401
asg1029
(lp3034
g1589
ag347
ag3
ag1023
ag1420
ag872
ag1295
ag1596
asg1251
(lp3035
g766
ag1245
ag280
ag834
ag100
ag1224
asg1355
(lp3036
g517
ag347
ag1351
ag1604
asg926
(lp3037
g703
ag572
ag692
ag919
asS'appl_836'
p3038
(lp3039
g703
ag651
ag1379
ag1237
ag792
ag849
ag1589
asS'appl_835'
p3040
(lp3041
sS'appl_834'
p3042
(lp3043
g1574
ag1604
ag154
asg439
(lp3044
g427
ag908
ag1544
asg1412
(lp3045
g119
ag1622
ag1502
ag1252
ag1372
ag1409
asg515
(lp3046
g1420
ag781
ag941
ag500
ag1081
asg561
(lp3047
g1452
ag930
ag542
ag154
ag1472
ag1257
ag556
ag378
ag517
ag919
asg186
(lp3048
g1525
ag347
ag1316
ag172
ag860
ag1589
asS'appl_1113'
p3049
(lp3050
g582
ag1461
ag1401
ag749
ag347
ag1208
asg1377
(lp3051
g1420
ag1372
ag1316
asg935
(lp3052
g930
ag1614
ag1257
ag1116
ag1351
ag263
ag678
ag1574
asS'appl_1118'
p3053
(lp3054
g894
ag366
ag1289
asg786
(lp3055
g500
ag781
ag1224
ag3
ag1437
ag860
asg1234
(lp3056
g1224
asg1447
(lp3057
g1157
ag1444
asS'appl_1204'
p3058
(lp3059
g427
asg709
(lp3060
g703
ag1237
ag1393
ag1252
ag1420
asg520
(lp3061
g1307
ag517
ag1023
ag1537
asg393
(lp3062
g1081
ag1359
ag1515
ag378
asS'appl_1200'
p3063
(lp3064
g1614
asg580
(lp3065
g572
ag1263
ag781
ag1224
asg300
(lp3066
g817
ag296
ag749
ag1490
asS'appl_753'
p3067
(lp3068
g969
ag1157
asS'appl_750'
p3069
(lp3070
g608
ag347
ag718
ag1530
ag1069
asg1593
(lp3071
g860
ag1515
ag1589
ag1272
ag1359
asS'appl_756'
p3072
(lp3073
g860
ag749
ag296
ag1496
asg1302
(lp3074
g622
ag1295
ag849
ag1461
ag1289
ag1564
asg656
(lp3075
g651
ag703
ag1208
ag1116
ag1059
ag1537
ag1452
asg1160
(lp3076
g894
ag1069
ag1157
ag572
ag872
ag1059
ag781
asg1108
(lp3077
g1200
ag1103
ag413
asg1156
(lp3078
g1116
ag1130
ag1430
ag1147
asg569
(lp3079
g1328
ag556
ag1237
ag154
asS'appl_118'
p3080
(lp3081
g1237
ag1481
ag1252
ag366
asg1262
(lp3082
g1257
ag1289
ag1316
ag766
ag1437
ag1490
asS'appl_114'
p3083
(lp3084
g872
ag894
ag1130
ag834
asg1617
(lp3085
g1537
ag781
ag1372
ag396
ag1614
asg529
(lp3086
g463
ag1081
ag517
asg1324
(lp3087
g1596
ag1316
ag1103
asg423
(lp3088
g1059
ag1548
ag413
ag1116
ag692
ag1401
ag1272
ag54
asS'appl_111'
p3089
(lp3090
g530
ag817
ag792
asS'appl_112'
p3091
(lp3092
g894
ag872
asg1027
(lp3093
g1393
ag1544
ag1046
ag1208
ag556
ag1023
asS'appl_334'
p3094
(lp3095
g366
ag884
asS'appl_335'
p3096
(lp3097
g1069
ag1157
ag1272
ag749
asS'appl_336'
p3098
(lp3099
g582
ag172
asg1306
(lp3100
g651
ag1295
asg1033
(lp3101
g1023
ag1272
asg1459
(lp3102
g210
ag1452
ag1166
ag1596
ag19
ag622
asg1267
(lp3103
g1544
ag1452
ag1263
asg278
(lp3104
g542
ag263
ag480
ag703
ag332
ag1564
asg377
(lp3105
g1622
ag1472
ag366
ag987
ag1307
ag1574
asg658
(lp3106
g1237
ag79
ag1420
ag1139
ag1496
ag651
ag718
asg1331
(lp3107
g517
ag396
ag1585
ag1328
ag413
asg1450
(lp3108
g1328
ag1604
ag530
ag1444
asg1399
(lp3109
g1393
ag1430
asg1028
(lp3110
g1093
ag1023
ag1081
ag1437
ag1316
asS'appl_1341'
p3111
(lp3112
g3
ag803
ag1081
ag651
ag817
asg701
(lp3113
g1444
ag692
asg1079
(lp3114
g1581
ag1614
ag1530
ag1496
ag1069
ag1555
ag1175
ag1263
asS'appl_1346'
p3115
(lp3116
g969
ag1379
ag332
ag100
asg630
(lp3117
g396
ag792
ag446
ag622
ag651
ag1633
ag1328
asg824
(lp3118
g817
asg1387
(lp3119
g1379
ag172
ag930
ag1490
ag1263
ag1622
asg98
(lp3120
g1252
ag1175
ag1614
ag1116
ag1581
ag79
asS'appl_248'
p3121
(lp3122
g1496
ag1093
ag332
ag1224
asS'appl_249'
p3123
(lp3124
g3
ag296
ag1186
asg1146
(lp3125
g608
ag1515
ag1157
ag718
ag1139
asg268
(lp3126
g280
ag1046
ag1059
ag119
ag263
ag735
asg205
(lp3127
g230
ag1252
ag187
ag396
ag860
asS'appl_241'
p3128
(lp3129
g3
ag1581
ag1046
ag1341
asg1110
(lp3130
g1564
ag1574
ag1544
ag1103
asg717
(lp3131
g1295
ag703
ag1147
asg820
(lp3132
g817
ag749
ag1401
ag803
ag930
asS'appl_937'
p3133
(lp3134
g1081
ag1437
ag79
asg72
(lp3135
g582
ag1257
ag54
asg106
(lp3136
g100
ag154
ag1379
asg1568
(lp3137
g347
ag1548
ag1537
ag1564
asg319
(lp3138
g316
ag480
ag1224
asg157
(lp3139
g480
ag154
ag1530
ag1186
ag347
ag263
ag1328
ag849
asg952
(lp3140
g1481
ag941
ag1341
ag154
ag1316
asS'appl_1296'
p3141
(lp3142
g316
ag119
ag1252
asg1558
(lp3143
g1574
ag1289
ag1555
asg288
(lp3144
g1544
ag884
ag316
ag957
ag735
ag280
asg591
(lp3145
g1257
ag834
ag1166
ag582
asS'appl_809'
p3146
(lp3147
g781
ag969
ag1224
ag1633
ag1564
asg1495
(lp3148
g463
ag19
ag1490
asg706
(lp3149
g703
ag1200
ag1279
ag463
asg511
(lp3150
g500
ag817
ag1157
ag636
ag582
asg1155
(lp3151
g1328
ag446
ag1401
ag1596
ag1295
ag1147
ag1279
asg1067
(lp3152
g530
ag1581
ag1059
ag230
ag636
asg937
(lp3153
g678
ag987
ag1537
ag930
asg337
(lp3154
g446
ag296
ag1257
ag332
ag1093
ag749
ag1116
asg1627
(lp3155
g735
ag908
ag1622
ag1633
ag1034
ag803
ag280
asg684
(lp3156
g1130
ag678
ag1530
ag1279
ag987
asg1325
(lp3157
g1521
ag1316
ag1589
ag930
asg509
(lp3158
g172
ag1409
ag1596
ag500
ag1437
ag1139
ag1175
asg1533
(lp3159
g1530
ag1502
ag1341
asS'appl_1122'
p3160
(lp3161
g54
asg964
(lp3162
g1215
ag957
ag595
ag1351
ag1147
asS'appl_1120'
p3163
(lp3164
g263
asg181
(lp3165
g749
ag366
ag1544
ag396
ag1409
ag249
ag1069
ag172
asS'appl_1126'
p3166
(lp3167
g718
asS'appl_1125'
p3168
(lp3169
g332
ag480
asg904
(lp3170
g332
ag1237
ag396
ag908
ag894
asg293
(lp3171
g280
ag1372
ag1351
ag1420
ag919
ag1521
asg914
(lp3172
g19
ag1046
ag998
ag908
asS'appl_744'
p3173
(lp3174
g919
ag1509
ag1034
ag1245
ag1166
ag1574
ag100
asg221
(lp3175
g35
ag210
ag1461
asg522
(lp3176
g1502
ag517
ag1633
ag1175
asg255
(lp3177
g249
ag1548
ag1544
ag1574
ag1034
ag919
asg325
(lp3178
g1289
ag316
ag872
ag969
asg777
(lp3179
g1081
ag766
ag1444
asg1540
(lp3180
g1537
ag1263
asg847
(lp3181
g834
ag1263
ag582
ag941
ag1103
ag280
ag884
ag664
asg1111
(lp3182
g54
ag1103
ag987
ag1530
asg1127
(lp3183
g1116
ag463
asS'appl_108'
p3184
(lp3185
g1401
ag1614
ag1521
ag1564
ag542
asg248
(lp3186
g1257
ag703
ag1585
ag1351
ag1372
ag230
ag919
ag1496
asg764
(lp3187
g1224
ag1481
ag1525
ag749
ag1359
ag1401
asg1126
(lp3188
g427
ag1116
ag749
asS'appl_104'
p3189
(lp3190
g1081
ag1452
ag1257
ag378
ag1186
asg564
(lp3191
g1604
ag1093
ag556
asg406
(lp3192
g396
ag1316
ag1130
asg730
(lp3193
g749
ag718
asg1256
(lp3194
g1252
asg151
(lp3195
g396
ag792
ag930
ag136
ag1046
ag1401
ag735
asg1385
(lp3196
g1515
ag3
ag941
ag1245
ag1379
ag1166
ag366
ag969
asg697
(lp3197
g19
ag692
ag1279
ag978
ag1359
asg1384
(lp3198
g1379
ag1103
ag1548
ag1555
ag378
asg130
(lp3199
g119
ag1614
ag572
asg683
(lp3200
g1011
ag678
ag834
ag1034
ag1521
asg1469
(lp3201
g1252
ag1147
ag172
ag1525
ag1537
ag849
ag1461
ag1437
asS'appl_634'
p3202
(lp3203
g230
ag119
asg1561
(lp3204
g572
ag1555
ag413
ag3
asg1313
(lp3205
g1401
ag1307
asg642
(lp3206
g1359
ag1537
ag1502
ag347
ag1200
ag636
ag1157
asg31
(lp3207
g136
ag957
ag19
ag941
ag1103
asg1404
(lp3208
g1147
ag1509
ag366
ag1093
ag1401
ag1452
asS'appl_324'
p3209
(lp3210
g622
asg1646
(lp3211
g1307
ag1642
ag396
asS'appl_322'
p3212
(lp3213
g54
ag1585
ag1472
ag1130
asg521
(lp3214
g136
ag517
ag1069
ag1530
asg394
(lp3215
g378
ag1289
ag1103
ag347
ag1307
ag1642
asg331
(lp3216
g792
ag280
ag316
asg685
(lp3217
g1359
ag1544
ag817
ag766
ag678
ag1502
asg206
(lp3218
g1614
ag172
ag187
ag1130
asg620
(lp3219
g608
ag1341
ag622
asS'appl_1356'
p3220
(lp3221
g1069
ag1409
ag249
ag1245
asg84
(lp3222
g1589
ag79
ag919
ag622
ag1420
asg275
(lp3223
g766
ag263
ag1596
ag396
ag1116
ag1401
ag187
ag556
ag1515
ag1147
asg236
(lp3224
g622
ag1257
ag413
ag817
ag230
ag1272
ag263
asg1109
(lp3225
g749
ag172
ag1139
ag1103
ag1496
asg435
(lp3226
g427
ag480
ag803
ag781
ag3
asg691
(lp3227
g749
ag3
ag1430
ag1316
ag678
ag1252
asg770
(lp3228
g1257
ag480
ag595
ag766
asg505
(lp3229
g500
ag1574
asg1044
(lp3230
g766
ag1316
ag1034
ag396
ag1166
ag463
ag978
asg549
(lp3231
g1509
ag542
ag1200
ag1272
asS'appl_928'
p3232
(lp3233
g1515
ag1307
ag664
ag1604
ag332
asg29
(lp3234
g1257
ag987
ag154
ag817
ag19
ag1393
ag919
asS'appl_924'
p3235
(lp3236
g998
ag1444
asg611
(lp3237
g1237
ag1252
ag608
asg1514
(lp3238
g1509
ag1351
ag703
asS'appl_921'
p3239
(lp3240
g1103
ag556
ag908
ag1034
asg588
(lp3241
g1069
ag172
ag1502
ag1224
ag582
ag1307
asg990
(lp3242
g1272
ag1472
ag1622
ag987
ag1409
asg1084
(lp3243
g413
ag1444
ag100
ag1081
asg1089
(lp3244
g1081
ag1629
asg60
(lp3245
g664
ag872
ag1430
ag1215
ag1263
ag54
asg1499
(lp3246
g1496
asS'appl_812'
p3247
(lp3248
g1585
ag530
ag1461
ag542
asg1362
(lp3249
g1481
ag1502
ag1046
ag1272
ag1359
ag3
asg640
(lp3250
g1328
ag678
ag636
asg1457
(lp3251
g1452
ag872
asg899
(lp3252
g1564
ag1059
ag894
ag1224
ag1351
asg729
(lp3253
g1401
ag427
ag622
ag446
ag718
asS'appl_818'
p3254
(lp3255
g1359
ag692
asg355
(lp3256
g280
ag678
ag1139
ag347
ag1093
ag987
asS'appl_1289'
p3257
(lp3258
g1295
ag556
ag1237
asS'appl_987'
p3259
(lp3260
g1208
ag998
ag718
asS'appl_986'
p3261
(lp3262
g347
ag366
ag1237
ag1614
ag1372
asS'appl_985'
p3263
(lp3264
g1372
ag803
ag1401
asS'appl_984'
p3265
(lp3266
g1257
ag1069
asg444
(lp3267
g427
ag280
ag1490
ag1359
ag1564
asS'appl_982'
p3268
(lp3269
g998
ag703
ag1023
asg552
(lp3270
g542
ag316
ag1509
asg471
(lp3271
g1589
ag1316
ag154
ag1252
ag463
ag1481
ag316
asg129
(lp3272
g1263
ag119
ag735
ag542
ag1316
ag849
ag556
ag1509
ag872
asg483
(lp3273
g1166
ag1585
ag480
ag187
asg125
(lp3274
g119
ag1574
ag230
ag1633
ag1548
asg1310
(lp3275
g1147
ag1307
ag1011
ag1351
ag930
asS'appl_1130'
p3276
(lp3277
g347
ag1515
ag1581
ag1452
asg326
(lp3278
g316
ag1139
ag500
ag1272
asg1552
(lp3279
g500
ag1139
ag1034
ag1081
ag1548
ag1372
ag119
asS'appl_1133'
p3280
(lp3281
sS'appl_626'
p3282
(lp3283
g19
ag1472
ag172
asg563
(lp3284
g1081
ag1272
ag1521
ag172
ag718
ag556
ag930
ag1490
asg408
(lp3285
g446
ag396
ag1509
ag692
asS'appl_625'
p3286
(lp3287
g1622
ag500
asS'appl_622'
p3288
(lp3289
g1622
ag1257
ag1263
asg538
(lp3290
g735
ag1614
ag1215
ag530
ag263
asg152
(lp3291
g1581
ag79
ag1420
ag136
asg457
(lp3292
g249
ag446
ag817
ag1409
asg322
(lp3293
g480
ag316
asS'appl_500'
p3294
(lp3295
g608
ag766
ag622
ag678
ag1289
asg303
(lp3296
g530
ag542
ag1103
ag1034
ag1537
ag296
ag1372
asS'appl_646'
p3297
(lp3298
g1200
ag530
ag1581
asS'appl_1431'
p3299
(lp3300
g1359
ag1175
ag1437
ag1409
ag957
asg1056
(lp3301
g1328
ag1046
ag1444
ag1530
asg44
(lp3302
g1581
ag35
ag1011
ag79
ag1401
asS'appl_1432'
p3303
(lp3304
g749
ag987
ag692
asg175
(lp3305
g1295
ag1581
ag172
ag1245
ag530
asS'appl_1434'
p3306
(lp3307
g517
ag1186
asg389
(lp3308
g919
ag664
ag378
ag332
ag1215
ag1307
asg30
(lp3309
g978
ag572
ag296
ag651
ag1537
ag849
ag919
ag957
ag19
asg24
(lp3310
g19
ag1481
ag366
ag941
ag500
ag930
asg204
(lp3311
g1444
ag1409
ag1537
ag154
ag413
ag1093
ag187
ag1237
ag1224
asS'appl_253'
p3312
(lp3313
g1515
ag703
asg83
(lp3314
g446
ag347
ag79
ag1537
ag1157
ag154
asg401
(lp3315
g396
ag1633
ag517
asg493
(lp3316
g781
ag894
ag1272
ag1175
ag480
ag651
ag1525
asg126
(lp3317
g119
ag1604
ag1147
ag154
ag718
ag622
asg262
(lp3318
g1069
ag1409
ag1585
ag249
ag1555
asg46
(lp3319
g35
ag969
ag595
ag1175
asg1261
(lp3320
g1490
ag860
ag1401
ag1509
ag1257
ag172
ag1452
asg856
(lp3321
g908
ag834
ag1237
ag1555
ag1257
ag849
asg688
(lp3322
g678
ag136
asS'appl_138'
p3323
(lp3324
g296
asS'appl_139'
p3325
(lp3326
sg1632
(lp3327
g1461
ag1011
ag930
ag1629
asg345
(lp3328
g1034
ag894
ag735
ag332
asg1099
(lp3329
g1307
ag817
ag1093
ag463
ag1496
asS'appl_649'
p3330
(lp3331
g582
ag664
ag595
asg1479
(lp3332
g1444
ag1359
ag1472
asg1207
(lp3333
g1200
ag1116
asg49
(lp3334
g1544
ag35
ag1622
ag1642
ag1420
ag1409
ag172
asg1602
(lp3335
g595
ag347
ag1596
ag1139
ag1295
ag1200
ag366
asg1489
(lp3336
g1574
ag1103
ag1481
asg1242
(lp3337
g1279
ag987
ag1481
ag1237
ag1175
asS'appl_314'
p3338
(lp3339
g969
asg85
(lp3340
g79
ag1401
asg418
(lp3341
g413
ag1081
ag582
ag860
ag957
ag1139
ag1472
asg312
(lp3342
g296
ag316
ag1341
ag998
ag1581
asS'appl_488'
p3343
(lp3344
g480
asg710
(lp3345
g703
ag803
ag556
ag1596
ag1585
asS'appl_482'
p3346
(lp3347
g1544
asg1595
(lp3348
g1589
ag1069
ag894
asS'appl_480'
p3349
(lp3350
g735
ag692
ag366
ag969
asS'appl_481'
p3351
(lp3352
g1295
asg1636
(lp3353
g1116
ag1633
ag1224
asg58
(lp3354
g263
ag54
ag1034
ag1093
ag296
ag1200
ag849
ag969
asg670
(lp3355
g1116
ag35
ag664
ag1530
ag280
asg104
(lp3356
g987
ag100
ag378
ag172
ag530
ag1081
asg476
(lp3357
g556
ag463
ag1393
ag1581
ag766
ag1147
asg1221
(lp3358
g1215
ag1069
ag332
ag1452
ag608
asg871
(lp3359
g249
ag1116
ag860
ag1437
ag1372
ag1257
asg798
(lp3360
g792
ag781
ag230
ag296
asS'appl_269'
p3361
(lp3362
g1521
ag1093
ag834
ag332
asg209
(lp3363
g1502
ag1496
ag1046
ag1437
ag187
ag1147
ag941
ag1452
asS'appl_267'
p3364
(lp3365
g230
ag500
ag1629
asg1292
(lp3366
g500
ag1289
ag1245
ag396
asg618
(lp3367
g1515
ag608
ag1509
ag692
ag1530
asg407
(lp3368
g396
ag1633
ag1034
ag542
asS'appl_263'
p3369
(lp3370
g1289
ag1130
ag834
ag636
ag230
asg1077
(lp3371
g396
ag1069
ag703
ag582
ag941
asg440
(lp3372
g1215
ag427
ag119
ag1589
ag1430
ag1023
ag860
asg1299
(lp3373
g35
ag894
ag396
ag1023
ag1295
ag692
asg1599
(lp3374
g280
ag622
ag1328
ag1596
ag480
asg1026
(lp3375
g1409
ag1023
ag622
ag366
ag1263
asg778
(lp3376
g230
ag678
ag1633
ag766
asS'appl_797'
p3377
(lp3378
g781
ag1496
ag1224
ag884
asg135
(lp3379
g1409
ag678
ag1564
ag119
asg848
(lp3380
g834
ag1430
ag1379
ag1420
asS'appl_792'
p3381
(lp3382
g1093
ag1581
asg641
(lp3383
g119
ag622
ag636
ag582
asg1080
(lp3384
g463
ag1622
ag1530
ag1444
ag413
ag1069
asg184
(lp3385
g1116
ag172
ag919
ag622
asg329
(lp3386
g636
ag1046
ag316
ag572
asg631
(lp3387
g1496
ag894
ag1452
ag622
asg1608
(lp3388
g1372
ag1215
ag1604
ag172
ag1245
asg831
(lp3389
g1430
ag941
ag817
ag263
ag608
asg576
(lp3390
g817
ag692
ag1521
ag572
asg373
(lp3391
g1034
ag1272
ag1359
ag366
ag1011
ag1372
ag998
ag1175
asg731
(lp3392
g1186
ag1437
ag718
asg1414
(lp3393
g987
ag1409
ag1252
ag172
asg494
(lp3394
g884
ag480
ag636
asg550
(lp3395
g542
ag1461
ag957
ag1215
asg675
(lp3396
g1481
ag1525
ag1409
ag1116
ag664
asg1505
(lp3397
g1596
ag35
ag1502
ag1581
ag969
ag446
ag1452
ag834
asg111
(lp3398
g749
ag1147
ag100
ag332
ag636
asS'appl_1388'
p3399
(lp3400
g1359
ag1116
ag35
asg87
(lp3401
g894
ag1103
ag1224
ag154
ag79
asg1476
(lp3402
g1186
ag1472
asS'appl_1385'
p3403
(lp3404
g3
ag817
ag735
ag296
asg635
(lp3405
g622
ag919
ag595
asS'appl_1383'
p3406
(lp3407
g1452
asg26
(lp3408
g1548
ag1372
ag817
ag1496
ag19
asS'appl_1381'
p3409
(lp3410
g1525
ag1130
ag803
asg291
(lp3411
g413
ag280
ag1081
ag1509
ag1401
asg451
(lp3412
g446
ag1237
ag1224
ag1452
asS'appl_511'
p3413
(lp3414
g608
ag1461
ag1515
ag582
asg1142
(lp3415
g366
ag1139
asg327
(lp3416
g1175
ag1614
ag1481
ag316
asg765
(lp3417
g978
ag622
ag749
ag1316
ag172
ag1585
asg122
(lp3418
g718
ag1200
ag119
ag1175
ag849
asg225
(lp3419
g998
ag230
ag582
ag210
ag1279
asS'appl_1427'
p3420
(lp3421
g187
ag463
asg535
(lp3422
g1642
ag1515
ag572
ag530
ag1059
asg200
(lp3423
g1200
ag187
ag1224
ag316
asg739
(lp3424
g735
ag1208
asg826
(lp3425
g1208
ag1166
ag817
ag1444
ag296
asS'appl_773'
p3426
(lp3427
g1401
ag664
asg1096
(lp3428
g978
ag834
ag792
ag1093
asg1068
(lp3429
g378
ag1642
ag230
ag1059
ag651
ag530
asS'appl_125'
p3430
(lp3431
g595
ag1279
asS'appl_124'
p3432
(lp3433
g1372
ag463
ag446
ag941
asg73
(lp3434
g834
ag54
ag1059
ag530
asg555
(lp3435
g542
ag556
asg906
(lp3436
g1307
ag1147
ag595
ag894
asg460
(lp3437
g1147
ag446
ag572
ag1245
ag1093
asg577
(lp3438
g894
ag1589
ag1351
ag572
asg993
(lp3439
g1034
ag517
ag987
ag998
ag1521
asg371
(lp3440
g803
ag1490
ag1289
ag703
ag366
ag1537
asg1076
(lp3441
g1496
ag1409
ag1069
ag1224
ag1351
asg1609
(lp3442
g517
ag1279
ag1604
ag378
asg365
(lp3443
g1372
ag1614
ag347
ag1034
ag969
ag366
ag749
ag396
asS'appl_659'
p3444
(lp3445
g908
ag1401
asg193
(lp3446
g678
ag1295
ag1437
ag187
ag792
ag1622
ag1263
asg687
(lp3447
g1328
ag1564
ag860
ag1023
ag1548
ag1379
ag1081
ag1509
ag718
ag678
ag1614
asS'appl_304'
p3448
(lp3449
g678
ag263
ag1544
ag664
ag1279
asg870
(lp3450
g595
ag1359
ag1574
ag860
ag1341
ag1589
asg955
(lp3451
g3
ag941
asg372
(lp3452
g1548
ag366
ag1585
ag172
ag1574
asg261
(lp3453
g249
ag1257
ag735
ag1186
ag1544
ag366
ag1200
ag987
ag1289
asg1266
(lp3454
g1359
ag1059
ag1263
asS'appl_302'
p3455
(lp3456
g1604
ag366
ag595
asg160
(lp3457
g463
ag1401
ag154
asS'appl_498'
p3458
(lp3459
g1544
asg1518
(lp3460
g1359
ag1515
ag1555
asg309
(lp3461
g1581
ag296
ag1093
ag1574
asg1501
(lp3462
g1502
ag1139
ag1496
asg1375
(lp3463
g1537
ag1372
ag803
ag1452
ag718
ag1328
asg727
(lp3464
g908
ag1289
ag941
ag1186
ag718
ag1393
asS'appl_490'
p3465
(lp3466
g766
asg1350
(lp3467
g1341
ag556
ag280
ag749
asg1443
(lp3468
g1604
ag446
ag1437
ag1215
ag154
ag1295
ag969
ag517
ag35
asg1193
(lp3469
g396
ag1245
ag1186
ag1263
ag517
ag1103
ag894
ag1139
asg825
(lp3470
g817
ag500
ag595
ag636
ag1081
asg551
(lp3471
g1157
ag957
ag1103
ag1279
ag54
ag542
ag1237
ag1011
ag582
ag1081
asg1233
(lp3472
g894
ag1341
ag1585
ag834
ag1224
asg1049
(lp3473
g1530
ag1046
ag1537
ag19
ag860
asg66
(lp3474
g54
ag517
asg1435
(lp3475
g1530
ag249
ag3
ag1537
ag1430
ag500
asS'appl_276'
p3476
(lp3477
g100
ag1307
ag347
ag749
ag154
ag1409
ag517
ag1544
ag930
asg667
(lp3478
g1224
ag1316
ag172
ag463
ag664
ag1633
asg498
(lp3479
g1379
ag480
ag1461
ag530
ag978
ag19
ag998
asS'appl_781'
p3480
(lp3481
sg1382
(lp3482
g500
ag1393
ag1379
ag316
asS'appl_783'
p3483
(lp3484
g1237
ag1059
ag595
ag1139
ag556
asg733
(lp3485
g427
ag1452
ag187
ag1574
ag718
ag1295
asS'appl_785'
p3486
(lp3487
g1011
asS'appl_784'
p3488
(lp3489
g1175
ag941
asg682
(lp3490
g1215
ag978
ag1515
ag1245
ag678
ag919
asS'appl_786'
p3491
(lp3492
g1515
asg1066
(lp3493
g1059
ag1596
ag296
ag1521
ag210
ag1341
ag1130
ag1147
asg1613
(lp3494
g1103
ag1604
asg42
(lp3495
g1461
ag530
ag35
ag542
asg1413
(lp3496
g987
ag446
ag1257
ag1409
ag1496
ag664
asg1573
(lp3497
g1564
ag1252
asg594
(lp3498
g735
ag1589
ag378
ag582
ag834
ag692
asg924
(lp3499
g1555
ag998
ag1525
ag987
ag919
asg1513
(lp3500
g998
ag1555
ag1509
asg1063
(lp3501
g860
ag1490
ag1585
ag1351
ag296
ag1237
ag1430
ag1059
asS'appl_871'
p3502
(lp3503
g542
ag1633
ag1351
ag1116
asS'appl_870'
p3504
(lp3505
g1629
ag582
asg10
(lp3506
g1393
ag3
asg508
(lp3507
g500
ag1252
asg578
(lp3508
g1359
ag919
ag1139
ag1452
ag572
asg1618
(lp3509
g413
ag1614
ag530
asg477
(lp3510
g1515
ag1272
ag978
ag1245
ag1208
ag463
asg167
(lp3511
g651
ag792
ag998
ag1521
ag930
ag154
ag781
asg416
(lp3512
g1200
ag413
ag500
ag1393
asg48
(lp3513
g1509
ag884
ag35
ag1472
asg96
(lp3514
g136
ag1515
ag79
ag941
ag1307
ag1186
ag1034
ag463
asg8
(lp3515
g332
ag3
asg226
(lp3516
g987
ag1307
ag210
asg449
(lp3517
g1307
ag1596
ag446
ag1215
asg1392
(lp3518
g119
ag1379
ag210
ag1279
ag1257
ag1430
asS'appl_85'
p3519
(lp3520
g19
asg524
(lp3521
g636
ag1093
ag622
ag517
asS'appl_87'
p3522
(lp3523
g1521
ag413
ag817
ag651
asg1205
(lp3524
g1200
ag1437
ag1555
ag530
ag1574
asg774
(lp3525
g1046
ag849
ag1208
ag1023
ag1401
ag766
asS'appl_80'
p3526
(lp3527
g1574
ag413
ag860
asg1206
(lp3528
g582
ag1093
ag1200
ag969
ag1548
asg506
(lp3529
g500
ag1452
asS'appl_89'
p3530
(lp3531
g849
asg259
(lp3532
g396
ag1093
ag817
ag249
ag1341
asg1320
(lp3533
g1548
ag296
ag1316
asg1091
(lp3534
g35
ag1081
ag1147
ag1307
ag1502
ag817
ag872
asg385
(lp3535
g1515
ag413
ag1564
ag1295
ag378
ag1393
asg203
(lp3536
g1093
ag608
ag1224
ag187
ag1490
asg612
(lp3537
g332
ag1257
ag608
ag817
asS'appl_1417'
p3538
(lp3539
g1208
ag1490
ag1372
ag1564
asg747
(lp3540
g735
ag894
ag119
asg1315
(lp3541
g1307
ag1472
ag1574
asg285
(lp3542
g703
ag1614
ag1166
ag1103
ag280
ag1472
ag296
ag582
ag332
ag480
asg566
(lp3543
g1420
ag1272
ag1059
ag556
ag316
ag987
ag542
ag1509
ag803
asg469
(lp3544
g998
ag54
ag463
ag1351
asg315
(lp3545
g296
ag595
ag766
asg1465
(lp3546
g1642
ag1614
ag556
ag678
ag1461
asg1039
(lp3547
g1472
ag1574
ag1034
ag636
ag1289
asg898
(lp3548
g1372
ag1034
ag172
ag894
ag1341
asg541
(lp3549
g500
ag1257
ag530
ag347
asg1235
(lp3550
g480
ag1224
ag608
ag1379
asg1484
(lp3551
g1341
ag1481
ag556
ag396
ag249
ag817
ag572
asS'appl_661'
p3552
(lp3553
g556
ag1589
ag1147
ag1372
asg213
(lp3554
g530
ag210
ag1237
ag872
ag1116
asg1211
(lp3555
g1023
ag1208
ag3
ag263
asg759
(lp3556
g749
ag1430
ag1581
ag1257
ag1548
asg844
(lp3557
g957
ag1359
ag1130
ag834
asg813
(lp3558
g1081
ag1629
ag803
asS'appl_669'
p3559
(lp3560
g1093
ag1245
ag749
ag1633
ag210
asg939
(lp3561
g1502
ag1444
ag1472
ag930
asg12
(lp3562
g872
ag1496
ag3
ag957
asg534
(lp3563
g530
ag1622
ag1245
ag1289
asg239
(lp3564
g230
ag446
ag1604
ag1289
ag908
asg1638
(lp3565
g1633
ag1604
ag1245
asg74
(lp3566
g1629
ag781
ag172
ag1272
ag54
ag651
ag692
ag718
ag1548
asS'appl_466'
p3567
(lp3568
g1215
ag1420
asg745
(lp3569
g608
ag735
ag1023
ag1263
ag1393
ag530
asS'appl_468'
p3570
(lp3571
g817
ag296
asg217
(lp3572
g1139
ag1461
ag210
ag280
ag347
ag1544
asS'appl_204'
p3573
(lp3574
sS'appl_205'
p3575
(lp3576
g884
ag1147
ag1604
ag735
ag1279
ag781
asS'appl_206'
p3577
(lp3578
g1011
ag1103
ag1401
ag1548
asg728
(lp3579
g1420
ag413
ag1093
ag378
ag1574
ag1585
ag718
asS'appl_200'
p3580
(lp3581
g1401
ag1252
asg1086
(lp3582
g1461
ag79
ag1081
ag1130
ag1372
ag230
asg1543
(lp3583
g1328
ag480
ag1537
asg755
(lp3584
g766
ag1372
ag703
ag749
ag1215
asg1100
(lp3585
g1585
ag230
ag1093
ag347
asg185
(lp3586
g172
ag1139
ag427
ag1279
ag500
ag703
ag1059
asg965
(lp3587
g1175
ag1629
ag1139
ag664
ag1081
ag1166
ag154
ag957
asg917
(lp3588
g692
ag1279
ag908
ag582
asg1006
(lp3589
g1252
ag998
ag766
ag1215
asg776
(lp3590
g1472
ag941
ag187
ag1046
ag1252
ag766
asg875
(lp3591
g582
ag703
ag872
ag1585
ag1157
ag884
ag1537
asg605
(lp3592
g595
ag1509
ag1604
ag919
ag347
ag860
ag1525
ag1502
asS'appl_1095'
p3593
(lp3594
g1341
asg1194
(lp3595
g396
ag100
ag1186
asg1053
(lp3596
g884
ag1046
ag280
asg499
(lp3597
g480
ag908
ag154
ag1295
ag1496
asg1436
(lp3598
g703
ag1430
ag1596
ag366
ag1461
ag1509
asg708
(lp3599
g100
ag263
ag1629
ag703
asg1366
(lp3600
g1548
ag1359
ag608
asg1542
(lp3601
g210
ag1537
ag803
ag316
ag1544
asS'appl_1255'
p3602
(lp3603
g446
ag1515
asg949
(lp3604
g230
ag718
ag941
ag969
asg1277
(lp3605
g347
ag1272
ag1581
ag930
asS'appl_1256'
p3606
(lp3607
g1481
ag1393
ag1461
asg123
(lp3608
g678
ag1614
ag1157
ag119
ag595
asg643
(lp3609
g1224
ag1530
ag636
ag1430
asg726
(lp3610
g1622
ag1481
ag718
ag1585
ag572
asS'appl_513'
p3611
(lp3612
sg32
(lp3613
g187
ag1147
ag263
ag19
ag1544
asg867
(lp3614
g1581
ag172
ag582
ag860
ag1472
ag998
ag1237
asg810
(lp3615
g803
ag1420
ag998
ag1544
ag987
ag1237
asg954
(lp3616
g296
ag1272
ag1372
ag941
asg1326
(lp3617
g1316
ag210
ag1614
asg1124
(lp3618
g1279
ag1130
ag1525
ag1208
ag1046
ag1116
ag1430
ag1490
asg855
(lp3619
g1175
ag1544
ag1525
ag1530
ag849
asg107
(lp3620
g1515
ag582
ag1581
ag413
ag100
asg1348
(lp3621
g957
ag249
ag1341
ag930
asg800
(lp3622
g792
ag1372
ag1444
ag1011
ag1589
asg602
(lp3623
g595
ag1341
ag1622
asS'appl_685'
p3624
(lp3625
g1011
ag1059
asg39
(lp3626
g517
ag35
ag1444
ag530
ag1316
ag136
asg911
(lp3627
g998
ag263
ag136
ag1157
ag1307
ag908
ag1379
ag1272
asg159
(lp3628
g210
ag154
asS'appl_859'
p3629
(lp3630
g1272
ag1430
ag154
ag969
asg645
(lp3631
g1130
ag1359
ag572
ag636
asg525
(lp3632
g1359
ag500
ag517
ag1316
ag692
ag849
asg14
(lp3633
g595
ag3
ag1472
ag849
ag692
ag1257
ag860
ag463
asg661
(lp3634
g1372
ag500
ag651
asg358
(lp3635
g1200
ag1175
ag781
ag347
asg1249
(lp3636
g1166
ag463
ag849
ag1245
ag1629
ag347
ag1490
asg490
(lp3637
g530
ag1420
ag1046
ag480
ag1341
ag413
ag1555
ag347
asg1041
(lp3638
g187
ag1496
ag263
ag1034
ag1585
asg1022
(lp3639
g1420
ag1011
ag622
asg284
(lp3640
g1289
ag1472
ag1430
ag280
asg242
(lp3641
g1200
ag781
ag530
ag517
ag1509
ag378
ag413
ag608
ag230
ag1393
asS'appl_404'
p3642
(lp3643
g3
ag263
asg1626
(lp3644
g1245
ag1437
ag1622
asg633
(lp3645
g413
ag622
ag1548
asg1032
(lp3646
g692
ag1564
ag1023
ag230
asg698
(lp3647
g692
ag1034
ag1521
ag930
ag210
asg1153
(lp3648
g1604
ag79
ag1633
ag1252
ag1245
ag1295
ag1147
ag100
asS'appl_1079'
p3649
(lp3650
sg143
(lp3651
g556
ag100
ag1548
ag136
ag1081
asg1559
(lp3652
g1245
ag1537
ag930
ag347
ag978
ag1555
ag1521
asS'appl_1070'
p3653
(lp3654
g595
ag1393
asg336
(lp3655
g817
ag3
ag1130
ag332
ag1069
asg202
(lp3656
g187
ag1420
ag1272
ag792
ag1372
ag1379
ag1103
ag1502
asg1136
(lp3657
g280
ag1130
asg1639
(lp3658
g1633
asg619
(lp3659
g1093
ag608
ag1147
ag1103
asg1260
(lp3660
g1574
ag1604
ag1525
ag1257
asg1106
(lp3661
g1103
ag1614
asS'appl_695'
p3662
(lp3663
g366
ag582
ag718
asg1007
(lp3664
g998
ag678
asg1363
(lp3665
g651
ag1295
ag230
ag1359
ag1581
ag280
ag1596
ag1252
ag1548
ag1409
asg144
(lp3666
g595
ag608
ag1379
ag542
ag1011
ag792
ag136
asg1128
(lp3667
g941
ag1157
ag1116
asg91
(lp3668
g582
ag1023
ag1103
ag1208
ag1257
ag79
ag1437
asg659
(lp3669
g316
ag651
ag664
asg290
(lp3670
g1252
ag1574
ag849
ag280
ag1564
ag1257
ag969
ag1409
ag1081
asS'appl_95'
p3671
(lp3672
g1175
ag480
ag542
ag556
asS'appl_98'
p3673
(lp3674
sg1171
(lp3675
g1166
ag834
ag396
asg308
(lp3676
g1116
ag1629
ag517
ag296
asg61
(lp3677
g1430
ag54
ag1208
asg1335
(lp3678
g1328
ag1034
ag378
asg1611
(lp3679
g1604
ag1544
ag154
ag1328
asS'appl_1402'
p3680
(lp3681
g978
ag500
ag1530
ag542
asg1424
(lp3682
g19
ag1420
asg299
(lp3683
g296
ag1581
ag154
ag249
asg436
(lp3684
g427
ag1034
asg1323
(lp3685
g1359
ag957
ag1585
ag1537
ag1316
asg234
(lp3686
g1166
ag230
ag1011
asg858
(lp3687
g957
ag366
ag692
ag463
ag849
ag678
ag35
ag517
ag154
asg784
(lp3688
g263
ag781
ag347
ag463
asg472
(lp3689
g500
ag1359
ag463
ag556
ag1642
asg526
(lp3690
g1166
ag1175
ag1139
ag517
asg424
(lp3691
g1537
ag413
ag1351
asg1064
(lp3692
g210
ag1059
ag1401
ag119
ag1437
ag1166
asg785
(lp3693
g413
ag781
ag1328
ag1555
ag1472
asS'appl_672'
p3694
(lp3695
g1372
ag446
ag263
ag542
ag834
asg228
(lp3696
g210
ag692
ag446
asS'appl_678'
p3697
(lp3698
g530
ag572
ag834
ag427
asg801
(lp3699
g1034
ag969
ag556
ag792
ag1452
asS'appl_472'
p3700
(lp3701
g608
ag1116
asg634
(lp3702
g749
ag1481
ag1186
ag1530
ag1461
ag622
ag1430
asg841
(lp3703
g1530
ag834
ag1642
asg689
(lp3704
g678
ag119
asg1275
(lp3705
g834
ag1272
asg975
(lp3706
g1525
ag396
ag1307
ag969
ag1166
asg1031
(lp3707
g595
ag1023
ag622
ag1379
asg267
(lp3708
g1359
ag1401
ag1452
ag263
asg994
(lp3709
g1316
ag987
ag1208
asg124
(lp3710
g1379
ag1215
ag1208
ag1437
ag119
asg218
(lp3711
g1574
ag1359
ag35
ag210
asg1488
(lp3712
g396
ag347
ag230
ag1481
asS'appl_654'
p3713
(lp3714
g969
ag636
ag1351
ag1328
ag582
ag3
asg353
(lp3715
g347
asS'appl_652'
p3716
(lp3717
g1175
asg1037
(lp3718
g1257
ag1034
ag413
asg344
(lp3719
g1272
ag1252
ag542
ag332
ag1200
ag749
ag1409
ag1295
asg425
(lp3720
g919
ag908
ag413
ag1208
ag1116
ag1564
ag1215
ag595
asg1419
(lp3721
g817
ag957
ag1208
ag1307
ag517
ag1409
asg383
(lp3722
g1537
ag1452
ag1521
ag378
ag1437
ag413
asg1219
(lp3723
g1116
ag1215
ag1596
asS'appl_211'
p3724
(lp3725
g280
ag1359
ag1139
ag1379
ag582
ag834
ag803
ag1581
asg199
(lp3726
g187
ag1245
ag834
asg1563
(lp3727
g1555
ag817
ag1490
ag1059
asg681
(lp3728
g1289
ag678
ag930
ag1272
asS'appl_218'
p3729
(lp3730
g1372
ag1544
ag1237
ag1257
asS'appl_613'
p3731
(lp3732
g210
asg11
(lp3733
g1521
ag3
ag1642
ag347
ag530
ag1604
ag1537
asg960
(lp3734
g378
ag1046
ag1341
ag1252
ag781
ag296
ag957
ag1537
asg432
(lp3735
g703
ag427
ag1614
ag894
ag1316
ag1208
ag230
ag1530
ag860
ag1116
ag1272
asg289
(lp3736
g1585
ag1059
ag1237
ag1452
ag396
ag1548
ag280
ag1316
ag636
ag1081
asg1198
(lp3737
g1307
ag1186
ag919
ag1490
asg1002
(lp3738
g1481
ag998
ag1574
ag1289
ag1437
ag1430
asg646
(lp3739
g1515
ag703
ag1420
ag1444
ag636
ag1257
ag427
ag1409
asg426
(lp3740
g1490
ag930
ag1544
ag413
asg734
(lp3741
g718
ag930
ag849
ag1341
asg1512
(lp3742
g1509
ag651
asS'appl_825'
p3743
(lp3744
g1564
ag622
ag1224
ag1472
asg1197
(lp3745
g263
ag530
ag1186
asg868
(lp3746
g749
ag595
ag210
ag1023
ag860
asg1248
(lp3747
g1496
ag582
ag1034
ag427
ag1245
ag572
ag1589
asg1487
(lp3748
g1481
asS'appl_1246'
p3749
(lp3750
g463
ag1023
ag1175
asS'appl_1247'
p3751
(lp3752
g1379
ag1496
ag1103
asg340
(lp3753
g1461
ag54
ag894
ag1208
ag1011
ag332
asg599
(lp3754
g54
ag595
asg459
(lp3755
g230
ag446
ag172
ag1409
asg966
(lp3756
g1103
ag957
ag803
asg474
(lp3757
g463
ag1272
ag263
ag622
asg338
(lp3758
g1581
ag263
ag332
ag969
asg1594
(lp3759
g1589
ag1393
asg876
(lp3760
g872
ag1420
ag517
asg864
(lp3761
g860
ag608
ag1461
ag978
ag1175
ag1252
asg421
(lp3762
g1409
ag1596
ag608
ag849
ag413
ag154
asg753
(lp3763
g749
ag1629
asS'appl_698'
p3764
(lp3765
g556
ag1166
ag1093
ag1633
asg1169
(lp3766
g1139
ag1629
ag1166
ag1175
ag872
ag3
asg214
(lp3767
g1208
ag608
ag872
ag100
ag1034
ag210
ag542
ag316
asg28
(lp3768
g19
ag378
ag316
ag1548
ag735
ag930
ag1496
asg163
(lp3769
g1272
ag316
ag1208
ag187
ag817
ag1328
ag154
asg788
(lp3770
g781
ag803
ag1157
ag1224
asg528
(lp3771
g517
ag1011
ag1430
ag1622
ag263
ag1279
asg489
(lp3772
g480
ag1316
ag1046
asg1493
(lp3773
g230
ag1633
ag1490
ass.