(lp0
S'Brookwood Baptist Health Program'
p1
aS'University of Alabama Medical Center Program'
p2
aS'University of South Alabama Program'
p3
aS'University of Arkansas for Medical Sciences Program'
p4
aS"St Joseph's Hospital and Medical Center Program"
p5
aS'University of Arizona Program'
p6
aS'Loma Linda University Health Education Consortium Program'
p7
aS'Cedars-Sinai Medical Center Program'
p8
aS'UCLA Medical Center Program'
p9
aS'University of Southern California/LAC+USC Medical Center Program'
p10
aS'University of California (Irvine) Program'
p11
aS'University of California (Davis) Health System Program'
p12
aS'University of California (San Diego) Program'
p13
aS'University of California (San Francisco) Program'
p14
aS'Stanford University Program'
p15
aS'Los Angeles County-Harbor-UCLA Medical Center Program'
p16
aS'University of Colorado Program'
p17
aS'Penrose-St Francis Health Services Program'
p18
aS'Danbury Hospital Program'
p19
aS'Hartford Hospital Program'
p20
aS'Yale-New Haven Medical Center Program'
p21
aS'George Washington University Program'
p22
aS'Georgetown University Hospital Program'
p23
aS'Howard University Program'
p24
aS'University of Florida Program'
p25
aS'University of Florida College of Medicine Jacksonville Program'
p26
aS'Jackson Memorial Hospital/Jackson Health System Program'
p27
aS'Mount Sinai Medical Center of Florida Program'
p28
aS'Orlando Health Program'
p29
aS'University of South Florida Morsani Program'
p30
aS'Emory University Program'
p31
aS'Medical College of Georgia Program'
p32
aS'University of Hawaii Program'
p33
aS'University of Iowa Hospitals and Clinics Program'
p34
aS'McGaw Medical Center of Northwestern University Program'
p35
aS'Rush University Medical Center Program'
p36
aS'University of Chicago Program'
p37
aS'University of Illinois College of Medicine at Chicago Program'
p38
aS'University of Chicago (NorthShore) Program'
p39
aS'Loyola University Program'
p40
aS'Indiana University School of Medicine Program'
p41
aS'University of Kansas School of Medicine Program'
p42
aS'University of Kentucky College of Medicine Program'
p43
aS'University of Louisville Program'
p44
aS'Louisiana State University Program'
p45
aS'Tulane University Program'
p46
aS'Louisiana State University (Shreveport) Program'
p47
aS'Beth Israel Deaconess Medical Center/Harvard Medical School Program'
p48
aS'Boston University Medical Center Program'
p49
aS"Brigham and Women's Hospital Program"
p50
aS'Massachusetts General Hospital Program'
p51
aS'Tufts Medical Center Program'
p52
aS'UMMS-Baystate Program'
p53
aS'University of Massachusetts Program'
p54
aS'Johns Hopkins University Program'
p55
aS'University of Maryland Program'
p56
aS'National Institutes of Health Clinical Center Program'
p57
aS'University of Michigan Program'
p58
aS'Detroit Medical Center/Wayne State University Program'
p59
aS'Henry Ford Hospital/Wayne State University Program'
p60
aS'St John Hospital and Medical Center Program'
p61
aS'William Beaumont Hospital Program'
p62
aS'University of Minnesota Program'
p63
aS'Mayo Clinic College of Medicine and Science (Rochester) Program'
p64
aS'University of Missouri-Columbia Program'
p65
aS'University of Missouri at Kansas City Program'
p66
aS'St Louis University School of Medicine Program'
p67
aS'Washington University/B-JH/SLCH Consortium Program'
p68
aS'University of Mississippi Medical Center Program'
p69
aS'University of North Carolina Hospitals Program'
p70
aS'Duke University Hospital Program'
p71
aS'Vidant Medical Center/East Carolina University Program'
p72
aS'Wake Forest University School of Medicine Program'
p73
aS'Creighton University Program'
p74
aS'University of Nebraska Medical Center College of Medicine Program'
p75
aS'Dartmouth-Hitchcock Medical Center Program'
p76
aS'St Barnabas Medical Center Program'
p77
aS'Rutgers Robert Wood Johnson Medical School Program'
p78
aS'Rutgers New Jersey Medical School Program'
p79
aS'University of New Mexico Program'
p80
aS'Albany Medical Center Program'
p81
aS'Montefiore Medical Center/Albert Einstein College of Medicine Program'
p82
aS'SUNY Health Science Center at Brooklyn Program'
p83
aS'University at Buffalo Program'
p84
aS'Nassau University Medical Center Program'
p85
aS'Hofstra Northwell School of Medicine Program'
p86
aS'Winthrop-University Hospital Program'
p87
aS'Hofstra Northwell School of Medicine at Lenox Hill Hospital Program'
p88
aS'Icahn School of Medicine at Mount Sinai Program'
p89
aS'Icahn School of Medicine at Mount Sinai/St Luke\xe2\x80\x99s-Roosevelt Hospital Center Program'
p90
aS'New York Presbyterian Hospital (Columbia Campus) Program'
p91
aS'New York Presbyterian Hospital (Cornell Campus) Program'
p92
aS'New York University School of Medicine Program'
p93
aS'University of Rochester Program'
p94
aS'Hofstra Northwell School of Medicine at Staten Island University Hospital Program'
p95
aS'Stony Brook Medicine/University Hospital Program'
p96
aS'SUNY Upstate Medical University Program'
p97
aS'New York Medical College at Westchester Medical Center Program'
p98
aS'Summa Health System/NEOMED Program'
p99
aS'University of Cincinnati Medical Center/College of Medicine Program'
p100
aS'Case Western Reserve University (MetroHealth) Program'
p101
aS'Case Western Reserve University/University Hospitals Cleveland Medical Center Program'
p102
aS'Cleveland Clinic Foundation Program'
p103
aS'Ohio State University Hospital Program'
p104
aS'University of Toledo Program'
p105
aS'University of Oklahoma Health Sciences Center Program'
p106
aS'Oregon Health & Science University Program'
p107
aS'Penn State Milton S Hershey Medical Center Program'
p108
aS'Drexel University College of Medicine/Hahnemann University Hospital Program'
p109
aS'Pennsylvania Hospital of the University of Pennsylvania Health System Program'
p110
aS'Temple University Hospital Program'
p111
aS'Thomas Jefferson University Program'
p112
aS'University of Pennsylvania Program'
p113
aS'Allegheny Health Network Medical Education Consortium (AGH) Program'
p114
aS'UPMC Medical Education Program'
p115
aS'University of Puerto Rico Program'
p116
aS'Brown University Program'
p117
aS'Medical University of South Carolina Program'
p118
aS'University of South Dakota Program'
p119
aS'East Tennessee State University Program'
p120
aS'University of Tennessee Medical Center at Knoxville Program'
p121
aS'University of Tennessee Program'
p122
aS'Vanderbilt University Medical Center Program'
p123
aS'Baylor University Medical Center Program'
p124
aS'University of Texas Southwestern Medical School Program'
p125
aS'University of Texas Medical Branch Hospitals Program'
p126
aS'Baylor College of Medicine Program'
p127
aS'Methodist Hospital (Houston) Program'
p128
aS'University of Texas Health Science Center at Houston Program'
p129
aS'Texas Tech University (Lubbock) Program'
p130
aS'University of Texas Health Science Center School of Medicine at San Antonio Program'
p131
aS'Texas A&M College of Medicine-Scott and White Program'
p132
aS'University of Utah Program'
p133
aS'University of Virginia Program'
p134
aS'Virginia Commonwealth University Health System Program'
p135
aS'University of Vermont Medical Center Program'
p136
aS'University of Washington Program'
p137
aS'University of Wisconsin Program'
p138
aS'Medical College of Wisconsin Affiliated Hospitals Program'
p139
aS'West Virginia University Program'
p140
a.