(dp0
VMayo Clinic College of Medicine and Science (Rochester) Program
p1
I15
sVUniversity of Arizona Program
p2
I5
sVCedars-Sinai Medical Center Program
p3
I10
sVUniversity of California (San Diego) Program
p4
I8
sVDrexel University College of Medicine/Hahnemann University Hospital Program
p5
I12
sVAlbany Medical Center Program
p6
I4
sVUniversity of California (San Francisco) Program
p7
I25
sVUniversity of Illinois College of Medicine at Chicago Program
p8
I10
s.