(lp0
S'University of California (San Francisco) Program'
p1
aS'Mayo Clinic College of Medicine and Science (Rochester) Program'
p2
aS'University of California (San Diego) Program'
p3
aS'Cedars-Sinai Medical Center Program'
p4
aS'University of Illinois College of Medicine at Chicago Program'
p5
aS'Drexel University College of Medicine/Hahnemann University Hospital Program'
p6
aS'Albany Medical Center Program'
p7
aS'University of Arizona Program'
p8
a.